(dp0
I0
I162
sI2
I5
sI5
I167
sI6
I2193
sI7
I169
sI11
I173
sI15
I177
sI17
I2204
sI18
I21
sI19
I181
sI21
I183
sI23
I50
sI25
I2212
sI29
I191
sI33
I195
sI35
I2222
sI44
I206
sI45
I47
sI47
I776
sI50
I212
sI51
I2238
sI52
I1510
sI54
I297
sI55
I217
sI57
I219
sI59
I302
sI61
I304
sI63
I225
sI65
I68
sI68
I1526
sI69
I2256
sI70
I232
sI73
I76
sI75
I318
sI76
I238
sI83
I101
sI87
I89
sI89
I2276
sI98
I1556
sI99
I101
sI101
I830
sI104
I4478
sI105
I2292
sI106
I13228
sI116
I134
sI128
I134
sI132
I134
sI134
NsI135
I137
sI137
I380
sI140
I1598
sI141
I384
sI142
I13264
sI146
I1604
sI150
I1608
sI152
I2339
sI153
I396
sI154
I13276
sI156
I4530
sI158
I401
sI160
I889
sI162
I165
sI163
I169
sI165
I183
sI167
I194
sI169
I178
sI171
I177
sI173
I176
sI176
I13298
sI177
I178
sI178
I4552
sI181
I184
sI183
I426
sI184
I1642
sI189
I1647
sI191
I194
sI194
I13316
sI195
I438
sI196
I4570
sI200
I13322
sI204
I4578
sI206
I935
sI207
I450
sI208
I1666
sI210
I1668
sI212
I455
sI214
I457
sI217
I946
sI219
I2406
sI220
I706
sI225
I954
sI226
I712
sI228
I714
sI230
I959
sI232
I961
sI238
I2425
sI245
I263
sI249
I411
sI251
I2438
sI260
I13382
sI261
I423
sI263
I6824
sI266
I428
sI267
I2454
sI268
I430
sI278
I296
sI290
I296
sI294
I296
sI296
NsI297
I13419
sI299
I302
sI302
I1760
sI303
I2490
sI304
I466
sI308
I1766
sI312
I13434
sI314
I2501
sI315
I318
sI316
I478
sI318
I480
sI320
I6881
sI322
I1051
sI332
I350
sI344
I350
sI348
I350
sI350
NsI380
I1838
sI384
I386
sI386
I2573
sI395
I1853
sI396
I398
sI398
I6959
sI401
I1859
sI402
I1131
sI403
I13525
sI405
I13527
sI407
I434
sI410
I13532
sI411
I438
sI412
I4786
sI416
I13538
sI420
I4794
sI422
I449
sI423
I426
sI424
I1882
sI426
I1884
sI428
I455
sI430
I6991
sI434
I452
sI438
I4812
sI440
I1169
sI449
I4823
sI450
I452
sI452
I455
sI455
I1913
sI456
I2643
sI457
I1915
sI459
I462
sI460
I478
sI462
I480
sI464
I2651
sI466
I1195
sI468
I13590
sI470
I473
sI473
I1931
sI474
I1203
sI475
I4849
sI478
I7039
sI480
I2667
sI481
I1939
sI486
I513
sI487
I649
sI489
I651
sI491
I518
sI493
I2680
sI495
I657
sI497
I500
sI500
I662
sI501
I528
sI502
I664
sI505
I508
sI507
I534
sI508
I13630
sI513
I515
sI515
I518
sI518
I680
sI519
I2706
sI520
I1978
sI524
I686
sI528
I690
sI530
I2717
sI531
I534
sI532
I13654
sI534
I13656
sI536
I1265
sI538
I2725
sI541
I2728
sI543
I1272
sI544
I706
sI549
I2736
sI550
I712
sI552
I714
sI554
I7115
sI556
I2743
sI562
I1291
sI567
I585
sI569
I596
sI572
I4946
sI573
I600
sI574
I13696
sI578
I2036
sI582
I2040
sI584
I2771
sI585
I612
sI586
I13708
sI588
I13710
sI590
I617
sI592
I2779
sI596
I614
sI600
I602
sI602
I2789
sI611
I2069
sI612
I13734
sI614
I1343
sI617
I13739
sI618
I2805
sI619
I13741
sI621
I624
sI622
I13744
sI624
I4998
sI626
I7187
sI628
I2815
sI630
I2088
sI632
I7193
sI635
I2093
sI636
I2823
sI637
I2095
sI640
I1369
sI642
I1371
sI643
I13765
sI649
I7210
sI651
I2838
sI652
I706
sI657
I2844
sI658
I712
sI660
I714
sI662
I1391
sI664
I7225
sI670
I2857
sI675
I678
sI676
I2134
sI678
I680
sI680
I2867
sI682
I7243
sI684
I686
sI686
I1415
sI689
I13811
sI690
I7251
sI691
I5065
sI694
I697
sI696
I2883
sI697
I2155
sI706
NsI712
NsI714
NsI731
I893
sI735
I897
sI737
I764
sI746
I908
sI747
I13869
sI749
I776
sI752
I13874
sI753
I996
sI754
I808
sI764
I782
sI776
I782
sI780
I782
sI782
NsI783
I945
sI785
I1028
sI788
I950
sI789
I1032
sI790
I952
sI794
I956
sI798
I960
sI800
I1043
sI801
I1044
sI802
I13924
sI804
I966
sI806
I1049
sI808
I1051
sI818
I836
sI830
I836
sI834
I836
sI836
NsI866
I884
sI870
I888
sI872
I1115
sI881
NsI882
I14004
sI884
I1127
sI887
I5261
sI888
I1131
sI889
I14011
sI891
I945
sI893
I920
sI896
I14018
sI897
I906
sI898
I5272
sI902
I14024
sI906
I5280
sI908
I935
sI909
I912
sI910
I964
sI912
I14034
sI914
I941
sI916
I1159
sI920
I14042
sI924
I5298
sI926
I935
sI935
I1421
sI936
I938
sI938
I1181
sI941
I14063
sI942
I1185
sI943
NsI945
I946
sI946
I1432
sI948
I1434
sI950
I959
sI952
I961
sI954
I1440
sI956
I959
sI959
I1445
sI960
I961
sI961
I1447
sI964
I967
sI966
I967
sI967
I1453
sI980
I998
sI992
I998
sI996
I998
sI998
NsI1028
I1046
sI1032
I1050
sI1034
I3221
sI1043
I1205
sI1044
I1046
sI1046
I1127
sI1049
I1211
sI1050
I1131
sI1051
I1213
sI1115
I1133
sI1127
I1133
sI1131
I1133
sI1133
NsI1136
I14258
sI1140
I5514
sI1142
I1169
sI1151
I5525
sI1152
I1154
sI1154
I1181
sI1157
I14279
sI1158
I1185
sI1159
I5533
sI1169
I1187
sI1181
I1187
sI1185
I1187
sI1187
NsI1188
I14310
sI1190
I1193
sI1193
I14315
sI1194
I1195
sI1195
I5569
sI1199
I14321
sI1203
I5577
sI1205
I3392
sI1206
I1207
sI1207
I1213
sI1209
I1211
sI1211
I3398
sI1213
I7774
sI1215
I1377
sI1217
I1244
sI1220
I1382
sI1221
I1248
sI1222
I1276
sI1226
I1388
sI1230
I1392
sI1232
I1259
sI1233
I1236
sI1234
I14356
sI1236
I14358
sI1238
I1265
sI1240
I1321
sI1244
I1262
sI1248
I1250
sI1250
I3437
sI1259
I1421
sI1260
I14382
sI1262
I1343
sI1265
I14387
sI1266
I1347
sI1267
NsI1269
I1272
sI1270
I1432
sI1272
I1434
sI1274
I7835
sI1276
I3463
sI1278
I1440
sI1280
I1283
sI1283
I1445
sI1284
I1285
sI1285
I1447
sI1288
I1291
sI1290
I1291
sI1291
I1453
sI1298
I1316
sI1302
I1320
sI1304
I1331
sI1313
NsI1314
I14436
sI1316
I1343
sI1319
I14441
sI1320
I1347
sI1321
I14443
sI1331
I1349
sI1343
I1349
sI1347
I1349
sI1349
NsI1350
I1368
sI1352
I1355
sI1355
I1373
sI1356
I1357
sI1357
I1375
sI1361
NsI1365
NsI1368
I1371
sI1369
I14491
sI1371
I14493
sI1373
I7934
sI1375
I3562
sI1377
I1386
sI1378
I1432
sI1380
I1434
sI1382
I1391
sI1384
I1393
sI1386
I1440
sI1388
I1391
sI1391
I1445
sI1392
I1393
sI1393
I1447
sI1396
I1399
sI1398
I1399
sI1399
I1453
sI1404
I1406
sI1406
I1415
sI1409
I14531
sI1410
I1419
sI1411
NsI1415
I1421
sI1419
I1421
sI1421
I3608
sI1422
I1425
sI1423
NsI1425
I14547
sI1427
I3614
sI1432
NsI1434
NsI1440
NsI1445
NsI1447
NsI1453
NsI1458
I1485
sI1459
I1621
sI1461
I1463
sI1463
I1472
sI1465
I1492
sI1467
I1469
sI1469
I1472
sI1472
I1526
sI1473
I3660
sI1474
I14596
sI1477
I1480
sI1479
I1722
sI1480
I1642
sI1485
I1647
sI1487
I1490
sI1490
I1652
sI1491
I3678
sI1492
I1654
sI1496
I14618
sI1500
I1662
sI1502
I3689
sI1503
I3690
sI1504
I1666
sI1506
I1668
sI1508
I8069
sI1510
I3697
sI1513
I1756
sI1515
I1758
sI1516
I1534
sI1521
I3708
sI1522
I1528
sI1524
I1526
sI1526
NsI1528
I3715
sI1534
I1777
sI1539
I14661
sI1541
I8102
sI1544
I1598
sI1545
I3732
sI1546
I14668
sI1550
I1604
sI1554
I14676
sI1556
I3743
sI1557
I1584
sI1558
I14680
sI1560
I5934
sI1562
I8123
sI1564
I3751
sI1568
I2054
sI1572
I2058
sI1574
I3761
sI1583
I2069
sI1584
I2070
sI1586
I8147
sI1589
I2075
sI1590
I3777
sI1591
I2077
sI1593
I1836
sI1594
I14716
sI1596
I1598
sI1598
NsI1600
I1609
sI1602
I1604
sI1604
NsI1608
I3795
sI1609
I14731
sI1612
I1855
sI1614
I1857
sI1615
I5989
sI1621
I1648
sI1623
I3810
sI1624
I1642
sI1629
I1656
sI1630
I1636
sI1632
I1634
sI1634
I3821
sI1636
I1663
sI1642
NsI1647
I3834
sI1648
I1666
sI1650
I1668
sI1652
I1895
sI1654
I1897
sI1656
I14778
sI1658
I1661
sI1661
I14783
sI1662
I1663
sI1663
I6037
sI1666
NsI1668
NsI1678
I3865
sI1684
I3871
sI1686
I3873
sI1687
NsI1701
I14823
sI1703
I1706
sI1706
I1760
sI1707
I3894
sI1708
I1870
sI1712
I1766
sI1716
I14838
sI1718
I3905
sI1719
I1722
sI1720
I1882
sI1722
I1884
sI1724
I8285
sI1726
I3913
sI1730
I1892
sI1734
I1896
sI1736
I3923
sI1745
I1907
sI1746
I1908
sI1748
I3935
sI1751
I1913
sI1752
I3939
sI1753
I1915
sI1755
I3942
sI1756
I14878
sI1758
I1760
sI1760
NsI1762
I3949
sI1764
I1766
sI1766
NsI1770
I1851
sI1771
I14893
sI1774
I1777
sI1776
I1777
sI1777
I1939
sI1784
I1838
sI1788
I1842
sI1790
I3977
sI1799
I1853
sI1800
I1854
sI1802
I8363
sI1805
I1859
sI1806
I3993
sI1807
I1861
sI1817
NsI1829
NsI1833
NsI1836
I1838
sI1838
NsI1842
I4029
sI1843
I14965
sI1851
I1853
sI1853
NsI1854
I1857
sI1855
I14977
sI1857
I1859
sI1859
NsI1861
I4048
sI1863
I1890
sI1864
I1882
sI1866
I1884
sI1868
I1895
sI1870
I1897
sI1872
I14994
sI1874
I1877
sI1877
I1931
sI1878
I1905
sI1879
I6253
sI1882
NsI1884
NsI1890
I1908
sI1892
I1895
sI1895
I1913
sI1896
I1897
sI1897
I1915
sI1901
I15023
sI1905
I6279
sI1907
I4094
sI1908
NsI1913
NsI1915
NsI1918
I4105
sI1920
I4107
sI1921
I1939
sI1926
I4113
sI1927
I1933
sI1929
I1931
sI1931
NsI1933
I4120
sI1939
NsI1945
I1972
sI1947
I1974
sI1948
I1966
sI1953
I1980
sI1954
I1960
sI1956
I1958
sI1958
I1985
sI1960
I1987
sI1966
I1993
sI1971
I4158
sI1972
I15094
sI1974
I1992
sI1976
I1985
sI1978
I1987
sI1980
I1982
sI1982
I1985
sI1985
I15107
sI1986
I1987
sI1987
I6361
sI1990
I1993
sI1992
I1993
sI1993
I2155
sI2002
I4189
sI2008
I4195
sI2010
I8571
sI2011
NsI2025
I2052
sI2026
I15148
sI2028
I6402
sI2030
I2039
sI2032
I2059
sI2034
I2036
sI2036
I8597
sI2039
I2093
sI2040
I2067
sI2041
I15163
sI2044
I2071
sI2046
I2073
sI2047
I15169
sI2052
I15174
sI2054
I2063
sI2057
I6431
sI2058
I4245
sI2059
I15181
sI2063
I6437
sI2067
I6441
sI2069
I4256
sI2070
I4257
sI2071
I15193
sI2073
I15195
sI2075
I8636
sI2077
I4264
sI2080
I2089
sI2082
I2091
sI2083
I2101
sI2088
I4275
sI2089
I2095
sI2091
I2093
sI2093
NsI2095
I4282
sI2101
I4288
sI2110
I4297
sI2116
I8677
sI2118
I4305
sI2119
NsI2134
I8695
sI2136
I4323
sI2137
I2155
sI2142
I4329
sI2143
I2149
sI2145
I2147
sI2147
I4334
sI2149
I8710
sI2155
NsI2189
I3647
sI2193
I3651
sI2195
I2222
sI2204
I3662
sI2205
I15327
sI2207
I2234
sI2210
I2372
sI2211
I2454
sI2212
I15334
sI2222
I2240
sI2234
I2240
sI2238
I2240
sI2240
NsI2241
I2403
sI2243
I2486
sI2246
I3704
sI2247
I2490
sI2248
I2410
sI2252
I3710
sI2256
I3714
sI2258
I2501
sI2259
I2502
sI2260
I2422
sI2262
I2424
sI2264
I2507
sI2266
I2509
sI2276
I2294
sI2288
I2294
sI2292
I2294
sI2294
NsI2324
I3782
sI2328
I2330
sI2330
I2573
sI2339
I3797
sI2340
I2346
sI2342
I2585
sI2345
NsI2346
I2589
sI2347
I15469
sI2349
I3807
sI2351
I2354
sI2354
I3812
sI2355
I2382
sI2356
I3814
sI2360
I15482
sI2364
I15486
sI2366
I2393
sI2367
I2370
sI2368
I3826
sI2370
I3828
sI2372
I2399
sI2374
I2617
sI2378
I15500
sI2382
I3840
sI2384
I2627
sI2393
I15515
sI2394
I3852
sI2396
I2399
sI2399
I2885
sI2400
I2643
sI2401
I3859
sI2403
I2406
sI2404
I2890
sI2406
I2892
sI2408
I2417
sI2410
I2419
sI2412
I2898
sI2414
I2417
sI2417
I2903
sI2418
I2419
sI2419
I2905
sI2422
I2425
sI2424
I2425
sI2425
I2911
sI2438
I2456
sI2450
I2456
sI2454
I2456
sI2456
NsI2486
I3944
sI2490
I15612
sI2492
I2573
sI2501
I3959
sI2502
I3960
sI2504
I2507
sI2507
I2669
sI2508
I2589
sI2509
I2671
sI2573
I2591
sI2585
I2591
sI2589
I2591
sI2591
NsI2594
I15716
sI2598
I15720
sI2600
I2627
sI2609
I15731
sI2610
I4068
sI2612
I2615
sI2615
I2669
sI2616
I2643
sI2617
I4075
sI2627
I2645
sI2639
I2645
sI2643
I2645
sI2645
NsI2646
I15768
sI2648
I2651
sI2651
I2669
sI2652
I2653
sI2653
I2671
sI2657
I4115
sI2661
I15783
sI2663
I3392
sI2664
I2667
sI2665
I4123
sI2667
I2669
sI2669
I3398
sI2671
I9232
sI2673
I2835
sI2675
I2702
sI2678
I2840
sI2679
I2706
sI2680
I15802
sI2684
I2846
sI2688
I2850
sI2690
I2717
sI2691
I2718
sI2692
I15814
sI2694
I15816
sI2696
I2723
sI2698
I2725
sI2702
I15824
sI2706
I4164
sI2708
I2789
sI2717
I2879
sI2718
I15840
sI2720
I2723
sI2723
I2885
sI2724
I2805
sI2725
I4183
sI2727
I2728
sI2728
I2890
sI2730
I2892
sI2732
I2741
sI2734
I2743
sI2736
I2898
sI2738
I2741
sI2741
I2903
sI2742
I2743
sI2743
I2905
sI2746
I2749
sI2748
I2749
sI2749
I2911
sI2756
I2762
sI2760
I2778
sI2762
I2789
sI2771
I4229
sI2772
I15894
sI2774
I2801
sI2777
NsI2778
I2805
sI2779
I15901
sI2789
I2807
sI2801
I2807
sI2805
I2807
sI2807
NsI2808
I2814
sI2810
I2819
sI2813
NsI2814
I2815
sI2815
I15937
sI2819
I4277
sI2823
I4281
sI2825
I9386
sI2826
I2827
sI2827
I15949
sI2829
NsI2833
I3562
sI2835
I2838
sI2836
I2890
sI2838
I2892
sI2840
I2849
sI2842
I2851
sI2844
I2898
sI2846
I2849
sI2849
I2903
sI2850
I2851
sI2851
I2905
sI2854
I2857
sI2856
I2857
sI2857
I2911
sI2862
I4320
sI2864
I2867
sI2867
I2885
sI2868
I2877
sI2869
I4327
sI2873
I15995
sI2877
I2879
sI2879
I3608
sI2880
I2883
sI2881
I4339
sI2883
I2885
sI2885
I3614
sI2887
I9448
sI2890
NsI2892
NsI2898
NsI2903
NsI2905
NsI2911
NsI2924
I2942
sI2936
I2942
sI2940
I2942
sI2942
NsI2972
I16094
sI2976
I16098
sI2978
I3221
sI2987
I3149
sI2988
I16110
sI2990
I3233
sI2993
I3155
sI2994
I3075
sI2995
I16117
sI3059
I3077
sI3071
I3077
sI3075
I3077
sI3077
NsI3080
I16202
sI3084
I16206
sI3086
I3113
sI3095
I16217
sI3096
I16218
sI3098
I3125
sI3101
I16223
sI3102
I3345
sI3103
I3157
sI3113
I3131
sI3125
I3131
sI3129
I3131
sI3131
NsI3132
I3618
sI3134
I3137
sI3137
I3623
sI3138
I3147
sI3139
I3625
sI3143
I3629
sI3147
I3633
sI3149
I3392
sI3150
I3153
sI3151
I3637
sI3153
I3639
sI3155
I3398
sI3157
I3400
sI3221
I3239
sI3233
I3239
sI3237
I3239
sI3239
NsI3329
I3347
sI3341
I3347
sI3345
I3347
sI3347
NsI3377
I16499
sI3381
I16503
sI3383
I3392
sI3392
I16514
sI3393
I16515
sI3395
I3398
sI3398
I16520
sI3399
I3400
sI3400
I16522
sI3404
I16526
sI3408
I16530
sI3410
I3437
sI3419
I3581
sI3420
I16542
sI3422
I3449
sI3425
I16547
sI3426
I3507
sI3427
I16549
sI3437
I3455
sI3449
I3455
sI3453
I3455
sI3455
NsI3456
I3618
sI3458
I3461
sI3461
I3623
sI3462
I3463
sI3463
I3625
sI3467
I3629
sI3471
I3633
sI3473
I3554
sI3474
I3475
sI3475
I3637
sI3477
I3639
sI3479
I3560
sI3481
I3562
sI3491
I3509
sI3503
I3509
sI3507
I3509
sI3509
NsI3539
I3545
sI3543
I3561
sI3545
I3554
sI3554
NsI3555
I16677
sI3557
I3560
sI3560
NsI3561
I3562
sI3562
I16684
sI3564
I3618
sI3566
I3569
sI3569
I3623
sI3570
I3579
sI3571
I3625
sI3575
I3629
sI3579
I3633
sI3581
I3608
sI3582
I3585
sI3583
I3637
sI3585
I3639
sI3587
I3614
sI3589
I3616
sI3593
I16715
sI3597
I3599
sI3599
I3608
sI3608
I16730
sI3609
I16731
sI3611
I3614
sI3614
I16736
sI3615
I3616
sI3616
NsI3618
NsI3623
NsI3625
NsI3629
NsI3633
NsI3637
NsI3639
NsI3645
I3807
sI3647
I10208
sI3650
I3704
sI3651
I3678
sI3652
I3814
sI3656
I3710
sI3660
I3662
sI3662
I3743
sI3663
I3690
sI3664
I3826
sI3666
I3828
sI3668
I3911
sI3670
I3697
sI3674
I3836
sI3678
I3840
sI3680
I10241
sI3689
I3851
sI3690
I3852
sI3692
I10253
sI3695
I3857
sI3696
I3697
sI3697
I3859
sI3699
I3942
sI3700
I3862
sI3702
I3704
sI3704
NsI3706
I3715
sI3708
I3710
sI3710
NsI3714
I3795
sI3715
I3877
sI3718
I3961
sI3720
I3963
sI3721
I3883
sI3728
I3782
sI3732
I3734
sI3734
I10295
sI3743
I3797
sI3744
I3750
sI3746
I10307
sI3749
NsI3750
I3777
sI3751
I16873
sI3761
I3779
sI3773
I3779
sI3777
I3779
sI3779
NsI3780
I3782
sI3782
NsI3786
I3795
sI3787
I16909
sI3795
I3797
sI3797
NsI3798
I4041
sI3799
I3805
sI3801
NsI3805
I4048
sI3807
I3834
sI3808
I3826
sI3810
I3812
sI3812
I3821
sI3814
I10375
sI3816
I3818
sI3818
I3821
sI3821
I3875
sI3822
I3823
sI3823
I3877
sI3826
NsI3828
NsI3834
I3852
sI3836
I3839
sI3839
I3857
sI3840
I4083
sI3841
I3859
sI3845
I16967
sI3849
I3851
sI3851
I4094
sI3852
NsI3857
NsI3859
NsI3862
I10423
sI3864
I4107
sI3865
I3883
sI3870
I3873
sI3871
I4357
sI3873
I3875
sI3875
NsI3877
I10438
sI3883
NsI3890
I3944
sI3894
I3912
sI3896
I3905
sI3905
I3959
sI3906
I4068
sI3908
I10469
sI3911
I3965
sI3912
I10473
sI3913
I4075
sI3923
I3941
sI3935
I3941
sI3939
I3941
sI3941
NsI3942
I3944
sI3944
NsI3948
I4029
sI3949
I3967
sI3957
I3959
sI3959
NsI3960
I10521
sI3961
I4123
sI3963
I3965
sI3965
NsI3967
I10528
sI3977
I3995
sI3989
I3995
sI3993
I3995
sI3995
NsI4029
I4031
sI4031
NsI4041
I4043
sI4043
NsI4047
I10608
sI4048
I17170
sI4050
I4068
sI4052
I4055
sI4055
I4073
sI4056
I4083
sI4057
I4075
sI4061
I4115
sI4065
I17187
sI4067
I4094
sI4068
NsI4073
NsI4075
NsI4079
I4085
sI4083
I4085
sI4085
I4094
sI4094
I17216
sI4097
NsI4101
NsI4104
I4107
sI4105
I4123
sI4107
I4109
sI4109
NsI4111
I10672
sI4113
I4115
sI4115
NsI4119
I4120
sI4120
I17242
sI4123
NsI4125
NsI4131
I4158
sI4132
I4294
sI4134
I4296
sI4136
I4145
sI4138
I4165
sI4140
I4142
sI4142
I10703
sI4145
I4199
sI4146
I10707
sI4147
I4201
sI4150
I4177
sI4152
I4153
sI4153
I4315
sI4158
I4320
sI4160
I10721
sI4163
I4325
sI4164
I4165
sI4165
I4183
sI4169
I4331
sI4173
I4175
sI4175
I4256
sI4176
I4177
sI4177
I4183
sI4179
I4341
sI4181
I10742
sI4183
I4264
sI4186
I4195
sI4188
I10749
sI4189
I4351
sI4194
I10755
sI4195
I4357
sI4197
I4199
sI4199
NsI4201
I10762
sI4207
I10768
sI4212
I4218
sI4214
I10775
sI4217
NsI4218
I4245
sI4219
I17341
sI4223
I4277
sI4227
I4229
sI4229
I10790
sI4230
I4257
sI4231
I17353
sI4233
NsI4237
I4264
sI4241
I4247
sI4245
I4263
sI4247
I10808
sI4256
I17378
sI4257
I4263
sI4259
I10820
sI4262
NsI4263
I4264
sI4264
I17386
sI4266
I4275
sI4267
I4273
sI4269
NsI4273
I4282
sI4275
I4277
sI4277
NsI4281
I10842
sI4282
I17404
sI4285
I4288
sI4288
NsI4294
I10855
sI4296
I4323
sI4297
I4315
sI4302
I10863
sI4303
I4357
sI4305
I4307
sI4307
I4334
sI4309
I10870
sI4315
NsI4320
I4323
sI4321
I4339
sI4323
I4325
sI4325
I4334
sI4327
I10888
sI4329
I4331
sI4331
I4334
sI4334
I17456
sI4335
I4336
sI4336
I17458
sI4339
NsI4341
NsI4351
NsI4357
NsI4359
NsI4374
I4377
sI4375
I4537
sI4377
I4379
sI4379
I4406
sI4381
I4624
sI4383
I4545
sI4385
I4388
sI4388
I5846
sI4389
I4416
sI4390
I4552
sI4393
I4396
sI4395
I4638
sI4396
I17518
sI4401
I4563
sI4403
I4406
sI4406
I4568
sI4407
I4416
sI4408
I4570
sI4412
I4574
sI4416
I4578
sI4418
I10979
sI4419
I4422
sI4420
I5878
sI4422
I5880
sI4424
I5153
sI4426
I4669
sI4429
I4672
sI4431
I4674
sI4432
I4450
sI4437
I4440
sI4438
I4444
sI4440
I4442
sI4442
I4685
sI4444
I4687
sI4450
I4693
sI4455
I17577
sI4457
I4460
sI4460
I5918
sI4461
I4488
sI4462
I17584
sI4466
I5924
sI4470
I5928
sI4472
I4499
sI4473
I4476
sI4474
I17596
sI4476
I17598
sI4478
I5207
sI4480
I4723
sI4484
I4970
sI4488
I4974
sI4490
I11051
sI4499
I4985
sI4500
I4986
sI4502
I5231
sI4505
I4991
sI4506
I5235
sI4507
I4993
sI4509
I4512
sI4510
I17632
sI4512
I4514
sI4514
I4757
sI4516
I4759
sI4518
I5976
sI4520
I4523
sI4523
I5981
sI4524
I4525
sI4525
I5983
sI4528
I4531
sI4530
I4773
sI4531
I17653
sI4537
I11098
sI4539
I4566
sI4540
I4558
sI4545
I5274
sI4546
I4552
sI4548
I4550
sI4550
I5279
sI4552
NsI4558
I11119
sI4563
I4806
sI4564
I4570
sI4566
I4568
sI4568
I4811
sI4570
NsI4572
I4578
sI4574
I5303
sI4577
I17699
sI4578
NsI4582
I4825
sI4584
I4827
sI4585
I6043
sI4594
I11155
sI4600
I5329
sI4602
I5331
sI4603
NsI4617
I4779
sI4619
I4622
sI4622
I17744
sI4623
I4624
sI4624
I4786
sI4628
I17750
sI4632
I4794
sI4634
I4661
sI4635
I4638
sI4636
I4798
sI4638
I4800
sI4640
I11201
sI4642
I5371
sI4646
I4808
sI4650
I4812
sI4652
I5381
sI4661
I4823
sI4662
I4824
sI4664
I5393
sI4667
I4829
sI4668
I11229
sI4669
I4831
sI4671
I4674
sI4672
I17794
sI4674
I4692
sI4676
I4757
sI4678
I5407
sI4680
I17802
sI4682
I4685
sI4685
I6143
sI4686
I4687
sI4687
I4849
sI4690
I4693
sI4692
I4693
sI4693
I6151
sI4700
I4754
sI4704
I4758
sI4706
I5435
sI4715
I4769
sI4716
I4770
sI4718
I11279
sI4721
I4775
sI4722
I5451
sI4723
I4777
sI4733
NsI4745
NsI4749
NsI4752
I6210
sI4754
I4757
sI4757
I6215
sI4758
I4759
sI4759
I17881
sI4763
I6221
sI4767
I6225
sI4769
I5498
sI4770
I4773
sI4771
I17893
sI4773
I6231
sI4775
I11336
sI4777
I5506
sI4779
I4806
sI4780
I4786
sI4782
I4800
sI4784
I4811
sI4786
NsI4788
I4794
sI4790
I4817
sI4793
I17915
sI4794
NsI4798
I11359
sI4800
I4827
sI4801
I6259
sI4806
I4812
sI4808
I4811
sI4811
I4829
sI4812
NsI4817
I4823
sI4823
NsI4824
I4827
sI4825
I4831
sI4827
I4829
sI4829
I5558
sI4831
NsI4834
I5563
sI4836
I5565
sI4837
I4855
sI4842
I5571
sI4843
I4849
sI4845
I4847
sI4847
I5576
sI4849
NsI4855
I11416
sI4861
I4888
sI4863
I4890
sI4864
I4882
sI4869
I4896
sI4870
I4876
sI4872
I4874
sI4874
I4901
sI4876
I4903
sI4882
I4909
sI4887
I4890
sI4888
I6346
sI4890
I4892
sI4892
I4901
sI4894
I4903
sI4896
I6354
sI4898
I4901
sI4901
I18023
sI4902
I11463
sI4903
I5065
sI4906
I4909
sI4908
I4989
sI4909
I6367
sI4918
I5647
sI4924
I5653
sI4926
I11487
sI4927
NsI4941
I4944
sI4942
I18064
sI4944
I4946
sI4946
I4973
sI4948
I4957
sI4950
I6408
sI4952
I4955
sI4955
I6413
sI4956
I4983
sI4957
I6415
sI4960
I4963
sI4962
I4989
sI4963
I18085
sI4968
I4970
sI4970
I4973
sI4973
I18095
sI4974
I4983
sI4975
I6433
sI4979
I6437
sI4983
I6441
sI4985
I11546
sI4986
I4989
sI4987
I18109
sI4989
I18111
sI4991
I5720
sI4993
I5722
sI4996
I4999
sI4998
I5727
sI4999
I5017
sI5004
I5007
sI5005
I5011
sI5007
I5009
sI5009
I11570
sI5011
I5740
sI5017
I5746
sI5026
I11587
sI5032
I11593
sI5034
I5763
sI5035
NsI5050
I11611
sI5052
I11613
sI5053
I5071
sI5058
I11619
sI5059
I5065
sI5061
I5063
sI5063
I5792
sI5065
NsI5071
I11632
sI5103
I5265
sI5105
I5132
sI5108
I5270
sI5109
I5352
sI5110
I5272
sI5114
I5276
sI5118
I5280
sI5120
I5147
sI5121
I5124
sI5122
I5176
sI5124
I5126
sI5126
I5153
sI5128
I5371
sI5132
I5294
sI5136
I5298
sI5138
I11699
sI5147
I5309
sI5148
I5150
sI5150
I5153
sI5153
I18275
sI5154
I11715
sI5155
NsI5157
I5160
sI5158
I5320
sI5160
I5178
sI5162
I5405
sI5164
I5407
sI5166
I5328
sI5168
I5171
sI5171
I5333
sI5172
I5173
sI5173
I5335
sI5176
I5179
sI5178
I5179
sI5179
I5665
sI5186
I5204
sI5190
I5208
sI5192
I11753
sI5201
NsI5202
I5204
sI5204
I11765
sI5207
I5693
sI5208
I5451
sI5209
I5263
sI5219
I5237
sI5231
I5237
sI5235
I5237
sI5237
NsI5238
I5256
sI5240
I5483
sI5243
I5261
sI5244
I5487
sI5245
I5263
sI5249
NsI5253
NsI5256
I5259
sI5257
I18379
sI5259
I5745
sI5261
I5504
sI5263
I5506
sI5265
I5508
sI5266
I5272
sI5268
I5270
sI5270
I5279
sI5272
NsI5274
I5280
sI5276
I5279
sI5279
I5333
sI5280
NsI5284
I11845
sI5286
I5529
sI5287
I5341
sI5292
I5298
sI5294
I5303
sI5297
I18419
sI5298
NsI5303
I5309
sI5309
NsI5310
I5553
sI5311
NsI5313
I5315
sI5315
I5558
sI5320
I11881
sI5322
I11883
sI5323
I5809
sI5328
I5329
sI5329
I5335
sI5331
I5333
sI5333
I5576
sI5335
NsI5341
I11902
sI5348
I5510
sI5352
I5514
sI5354
I5381
sI5363
I5525
sI5364
I5366
sI5366
I11927
sI5369
I5531
sI5370
I11931
sI5371
I5533
sI5381
I5399
sI5393
I5399
sI5397
I5399
sI5399
NsI5400
I5418
sI5402
I5405
sI5405
I5567
sI5406
I5407
sI5407
I5569
sI5411
I5573
sI5415
I5577
sI5417
I5498
sI5418
I11979
sI5419
I5425
sI5421
I5423
sI5423
I5504
sI5425
I11986
sI5435
I5453
sI5447
I5453
sI5451
I5453
sI5453
NsI5483
I5501
sI5487
I5505
sI5489
I12050
sI5498
NsI5499
I5501
sI5501
I12062
sI5504
I18626
sI5505
I12066
sI5506
I18628
sI5508
I5514
sI5510
I5537
sI5513
I18635
sI5514
NsI5519
I5525
sI5525
NsI5526
I12087
sI5527
I5533
sI5529
I5531
sI5531
I5558
sI5533
NsI5537
I5543
sI5543
NsI5553
I5555
sI5555
I5558
sI5558
I18680
sI5559
NsI5562
I5563
sI5563
I5569
sI5565
I5567
sI5567
I5576
sI5569
NsI5571
I5577
sI5573
I5576
sI5576
I18698
sI5577
NsI5581
I12142
sI5583
I5584
sI5584
I18706
sI5589
I5592
sI5590
I5644
sI5592
I5610
sI5594
I5621
sI5596
I5605
sI5598
I5760
sI5600
I5603
sI5603
I5765
sI5604
I12165
sI5605
I5767
sI5608
I5611
sI5610
I5691
sI5611
I5665
sI5616
I5618
sI5618
I5621
sI5621
I18743
sI5622
I12183
sI5623
NsI5627
I5789
sI5631
I5793
sI5633
I12194
sI5634
I5715
sI5635
NsI5637
I18759
sI5639
I5720
sI5644
I5647
sI5646
I12207
sI5647
I5665
sI5652
I12213
sI5653
I5815
sI5655
I5817
sI5657
I12218
sI5659
I12220
sI5665
I5746
sI5670
I5688
sI5672
I5699
sI5675
I5693
sI5676
I5703
sI5677
I5695
sI5681
NsI5685
NsI5688
I5691
sI5689
I18811
sI5691
I18813
sI5693
I5720
sI5695
I5722
sI5699
I5717
sI5703
I5705
sI5705
I12266
sI5714
NsI5715
I5717
sI5717
I5720
sI5720
I18842
sI5721
I12282
sI5722
NsI5724
I5727
sI5725
I5743
sI5727
I5745
sI5729
I12290
sI5731
I5740
sI5733
NsI5738
NsI5740
NsI5743
I5746
sI5745
I5746
sI5746
I18868
sI5752
I12313
sI5754
I12315
sI5755
I5809
sI5760
I12321
sI5761
I5767
sI5763
I5765
sI5765
I5792
sI5767
NsI5773
I12334
sI5778
I5787
sI5779
NsI5781
I5783
sI5783
I5792
sI5787
I5789
sI5789
I5792
sI5792
I18914
sI5793
NsI5799
I12360
sI5800
NsI5809
NsI5815
NsI5817
NsI5833
I5860
sI5835
I5862
sI5836
I18958
sI5841
I5868
sI5842
I18964
sI5844
I18966
sI5846
I5927
sI5848
I5875
sI5854
I5881
sI5859
I5862
sI5860
I18982
sI5862
I18984
sI5864
I5873
sI5866
I5875
sI5868
I18990
sI5870
I5873
sI5873
I18995
sI5874
I5875
sI5875
I6037
sI5878
I5881
sI5880
I5881
sI5881
I6043
sI5890
I6133
sI5896
I5977
sI5898
I5979
sI5899
NsI5913
I5916
sI5914
I19036
sI5916
I19038
sI5918
I5927
sI5920
I5929
sI5922
I19044
sI5924
I5927
sI5927
I5981
sI5928
I5955
sI5929
I19051
sI5932
I5935
sI5934
I6177
sI5935
I19057
sI5940
I19062
sI5942
I5945
sI5945
I19067
sI5946
I5955
sI5947
I19069
sI5951
I19073
sI5955
I19077
sI5957
I12518
sI5958
I5961
sI5959
I19081
sI5961
I19083
sI5963
I12524
sI5965
I6208
sI5968
I6211
sI5970
I6213
sI5971
I19093
sI5976
I5979
sI5977
I19099
sI5979
I5981
sI5981
NsI5983
I6226
sI5989
I6232
sI5998
I6025
sI6004
I6031
sI6006
I6033
sI6007
NsI6022
I6265
sI6024
I6267
sI6025
I6043
sI6030
I6031
sI6031
I6037
sI6033
I19155
sI6035
I6278
sI6037
NsI6043
NsI6075
I6078
sI6076
I19198
sI6078
I19200
sI6080
I6089
sI6082
I6091
sI6084
I19206
sI6086
I6089
sI6089
I6143
sI6090
I6091
sI6091
I6253
sI6094
I6097
sI6096
I6097
sI6097
I6151
sI6102
I19224
sI6104
I6107
sI6107
I6269
sI6108
I6109
sI6109
I6271
sI6113
I19235
sI6117
I6279
sI6119
I6200
sI6120
I6121
sI6121
I6283
sI6123
I6285
sI6125
I12686
sI6127
I12688
sI6130
I6133
sI6132
I6213
sI6133
I6151
sI6138
I6219
sI6139
I19261
sI6141
I6143
sI6143
NsI6145
I6226
sI6151
I6232
sI6156
I19278
sI6158
I6161
sI6161
I6215
sI6162
I6163
sI6163
I19285
sI6167
I6221
sI6171
I19293
sI6173
I6200
sI6174
I6177
sI6175
I19297
sI6177
I6231
sI6179
I12740
sI6181
I6208
sI6185
NsI6189
NsI6200
NsI6201
NsI6206
NsI6208
NsI6210
I6213
sI6211
I19333
sI6213
I6215
sI6215
NsI6217
I6226
sI6219
I6221
sI6221
NsI6225
I6226
sI6226
I19348
sI6229
I6232
sI6231
I6232
sI6232
I19354
sI6238
I6265
sI6240
I6267
sI6241
I6259
sI6246
I6273
sI6247
I6253
sI6249
I19371
sI6251
I6278
sI6253
NsI6259
NsI6264
I6265
sI6265
I6271
sI6267
I6269
sI6269
I6278
sI6271
NsI6273
I6279
sI6275
I6278
sI6278
I19400
sI6279
NsI6283
NsI6285
NsI6295
I12856
sI6301
I6304
sI6303
I6304
sI6304
NsI6322
I6349
sI6328
I6355
sI6330
I6411
sI6331
NsI6346
I6349
sI6348
I6429
sI6349
I6367
sI6354
I6435
sI6355
I6361
sI6357
I19479
sI6359
I6440
sI6361
I6442
sI6367
I6448
sI6400
I6427
sI6402
I6429
sI6403
I19525
sI6408
I6435
sI6409
I19531
sI6411
I6413
sI6413
I6440
sI6415
I6442
sI6421
I6448
sI6426
I6429
sI6427
I19549
sI6429
I19551
sI6431
I6440
sI6433
I6442
sI6435
I19557
sI6437
I6440
sI6440
I19562
sI6441
I6442
sI6442
I19564
sI6445
I6448
sI6447
I6448
sI6448
I19570
sI6457
I6466
sI6463
I6466
sI6465
I13026
sI6466
NsI6511
I13072
sI6517
I13078
sI6519
I13080
sI6520
NsI6563
I6581
sI6567
I6729
sI6569
I6596
sI6578
I7064
sI6579
I6741
sI6581
I6824
sI6584
I8042
sI6585
I6828
sI6586
I6748
sI6596
I6614
sI6608
I6614
sI6612
I6614
sI6614
NsI6615
I6777
sI6617
I6620
sI6620
I8078
sI6621
I6864
sI6622
I6784
sI6626
I8084
sI6630
I7116
sI6632
I6713
sI6633
I6876
sI6634
I6796
sI6636
I6798
sI6638
I6881
sI6640
I6883
sI6650
I6668
sI6662
I6668
sI6666
I6668
sI6668
NsI6698
I8156
sI6702
I6704
sI6704
I6947
sI6713
I8171
sI6714
I6716
sI6716
I6959
sI6719
I8177
sI6720
I6963
sI6721
NsI6723
I7209
sI6725
I6728
sI6728
I8186
sI6729
I6730
sI6730
I11104
sI6734
I7220
sI6738
I11112
sI6740
I6767
sI6741
I6984
sI6742
I8200
sI6744
I8202
sI6746
I6773
sI6748
I6991
sI6752
I6770
sI6756
I11130
sI6758
I7001
sI6767
I11141
sI6768
I8226
sI6770
I7013
sI6773
I8231
sI6774
I7017
sI6775
I8233
sI6777
I6778
sI6778
I7264
sI6780
I7266
sI6782
I6791
sI6784
I6793
sI6786
I7272
sI6788
I6791
sI6791
I7277
sI6792
I6793
sI6793
I7279
sI6796
I6799
sI6798
I6799
sI6799
I7285
sI6812
I6830
sI6824
I6830
sI6828
I6830
sI6830
NsI6860
I8318
sI6864
I6882
sI6866
I6947
sI6875
NsI6876
I6878
sI6878
I6959
sI6881
I8339
sI6882
I7611
sI6883
I7045
sI6947
I6965
sI6959
I6965
sI6963
I6965
sI6965
NsI6968
I6986
sI6972
I11346
sI6974
I7001
sI6983
NsI6984
I8442
sI6986
I7013
sI6989
I8447
sI6990
I6991
sI6991
I7045
sI7001
I7019
sI7013
I7019
sI7017
I7019
sI7019
NsI7020
I7038
sI7022
I7025
sI7025
I8483
sI7026
I7027
sI7027
I7045
sI7031
NsI7035
NsI7038
I7039
sI7039
I7045
sI7041
I8499
sI7043
I9230
sI7045
I7774
sI7047
I7209
sI7049
I7076
sI7052
I7214
sI7053
I7080
sI7054
I7216
sI7058
I8516
sI7062
I7224
sI7064
I7091
sI7065
I7092
sI7066
I7228
sI7068
I7230
sI7070
I7097
sI7072
I7099
sI7076
I7082
sI7080
I7082
sI7082
I7163
sI7091
I7253
sI7092
I7094
sI7094
I7175
sI7097
I7259
sI7098
I9285
sI7099
I7261
sI7101
I7104
sI7102
I7264
sI7104
I7266
sI7106
I7115
sI7108
I7117
sI7110
I7272
sI7112
I7115
sI7115
I7277
sI7116
I9303
sI7117
I7279
sI7120
I7123
sI7122
I7851
sI7123
I7285
sI7130
I8588
sI7134
I7136
sI7136
I7163
sI7145
I8603
sI7146
I7148
sI7148
I7175
sI7151
I11525
sI7152
I7179
sI7153
NsI7163
I7181
sI7175
I7181
sI7179
I7181
sI7181
NsI7182
I7184
sI7184
I7187
sI7187
I8645
sI7188
I7197
sI7189
NsI7193
I8651
sI7197
I7199
sI7199
I9386
sI7200
I7203
sI7201
NsI7203
I7205
sI7205
I7934
sI7209
I7212
sI7210
I7264
sI7212
I7266
sI7214
I7223
sI7216
I7225
sI7218
I7272
sI7220
I7223
sI7223
I7277
sI7224
I7225
sI7225
I7279
sI7228
I7231
sI7230
I7231
sI7231
I7285
sI7236
I8694
sI7238
I7241
sI7241
I7259
sI7242
I7251
sI7243
I8701
sI7247
I7253
sI7251
I11625
sI7253
I7982
sI7254
I7257
sI7255
I8713
sI7257
I8715
sI7259
I9446
sI7261
I9448
sI7264
NsI7266
NsI7272
NsI7277
NsI7279
NsI7285
NsI7298
I7316
sI7310
I7316
sI7314
I7316
sI7316
NsI7346
I11720
sI7350
I11724
sI7352
I7433
sI7361
I7523
sI7362
I11736
sI7364
I7445
sI7367
I11741
sI7368
I7611
sI7369
I7531
sI7433
I7451
sI7445
I7451
sI7449
I7451
sI7451
NsI7454
I11828
sI7458
I11832
sI7460
I7487
sI7469
I11843
sI7470
I11844
sI7472
I7499
sI7475
I11849
sI7476
I7719
sI7477
I11851
sI7487
I7505
sI7499
I7505
sI7503
I7505
sI7505
NsI7506
I7992
sI7508
I7511
sI7511
I7997
sI7512
I7513
sI7513
I7999
sI7517
I8003
sI7521
I8007
sI7523
I7766
sI7524
I7525
sI7525
I8011
sI7527
I8013
sI7529
I7772
sI7531
I7774
sI7595
I7613
sI7607
I7613
sI7611
I7613
sI7613
NsI7703
I7721
sI7715
I7721
sI7719
I7721
sI7721
NsI7751
I7769
sI7755
I12129
sI7757
I7766
sI7766
NsI7767
I12141
sI7769
I7772
sI7772
I12146
sI7773
I7774
sI7774
I12148
sI7778
I12152
sI7782
I12156
sI7784
I7811
sI7793
I7955
sI7794
I12168
sI7796
I7823
sI7799
I12173
sI7800
I7827
sI7801
I7855
sI7811
I7829
sI7823
I7829
sI7827
I7829
sI7829
NsI7830
I7992
sI7832
I7835
sI7835
I7997
sI7836
I7837
sI7837
I7999
sI7841
I8003
sI7845
I8007
sI7847
I7928
sI7848
I7851
sI7849
I8011
sI7851
I8013
sI7853
I7934
sI7855
I7936
sI7865
I7883
sI7877
I7883
sI7881
I7883
sI7883
NsI7913
I7931
sI7917
I7919
sI7919
I7928
sI7928
NsI7929
I7931
sI7931
I7934
sI7934
I12308
sI7935
I7936
sI7936
NsI7938
I7992
sI7940
I7949
sI7943
I7997
sI7944
I7953
sI7945
I7999
sI7949
I8003
sI7953
I8007
sI7955
I7982
sI7956
I7959
sI7957
I8011
sI7959
I8013
sI7961
I7988
sI7963
I7990
sI7967
I12341
sI7971
I12345
sI7973
I7982
sI7982
I12356
sI7983
I7985
sI7985
I7988
sI7988
I12362
sI7989
I7990
sI7990
NsI7992
NsI7997
NsI7999
NsI8003
NsI8007
NsI8011
NsI8013
NsI8019
I8181
sI8021
I10208
sI8024
I8078
sI8025
I10212
sI8026
I8188
sI8030
I8084
sI8034
I8520
sI8036
I8117
sI8037
I8280
sI8038
I8200
sI8040
I8202
sI8042
I8285
sI8044
I8071
sI8048
I8066
sI8052
I8214
sI8054
I10241
sI8063
I8549
sI8064
I8226
sI8066
I10253
sI8069
I8231
sI8070
I10257
sI8071
I8233
sI8073
I10260
sI8074
I8236
sI8076
I8078
sI8078
NsI8080
I10267
sI8082
I8084
sI8084
NsI8088
I10275
sI8089
I8251
sI8092
I8095
sI8094
I8337
sI8095
I8257
sI8102
I8156
sI8106
I8108
sI8108
I10295
sI8117
I8171
sI8118
I8120
sI8120
I8363
sI8123
I8177
sI8124
I10311
sI8125
NsI8135
I8153
sI8147
I8153
sI8151
I8153
sI8153
NsI8154
I8156
sI8156
NsI8160
I10347
sI8161
NsI8169
I8171
sI8171
NsI8172
I8415
sI8173
NsI8175
I8177
sI8177
NsI8181
I10368
sI8182
I8200
sI8184
I8202
sI8186
I10373
sI8188
I8215
sI8190
I8676
sI8192
I8195
sI8195
I8249
sI8196
I8197
sI8197
I8683
sI8200
NsI8202
NsI8208
I8226
sI8210
I8213
sI8213
I8231
sI8214
I8215
sI8215
I8233
sI8219
I8705
sI8223
I12597
sI8225
I10412
sI8226
NsI8231
NsI8233
NsI8236
I10423
sI8238
I10425
sI8239
I8257
sI8244
I10431
sI8245
I8731
sI8247
I8249
sI8249
NsI8251
I10438
sI8257
NsI8264
I8318
sI8268
I8286
sI8270
I10457
sI8279
NsI8280
I8442
sI8282
I8285
sI8285
I8339
sI8286
I10473
sI8287
I8449
sI8297
I8315
sI8309
I8315
sI8313
I8315
sI8315
NsI8316
I8318
sI8318
NsI8322
I10509
sI8323
I8341
sI8331
NsI8334
I8337
sI8335
I8497
sI8337
I8339
sI8339
NsI8341
I10528
sI8351
I8369
sI8363
I8369
sI8367
I8369
sI8369
NsI8403
I8405
sI8405
NsI8415
I8417
sI8417
NsI8421
I10608
sI8422
NsI8424
I8442
sI8426
I8429
sI8429
I8447
sI8430
I8431
sI8431
I8449
sI8435
NsI8439
NsI8442
NsI8447
NsI8449
NsI8453
I8471
sI8457
I8475
sI8459
I10646
sI8468
NsI8471
NsI8475
NsI8478
I8481
sI8479
I8497
sI8481
I8483
sI8483
NsI8485
I10672
sI8487
NsI8494
NsI8497
NsI8499
NsI8505
I10692
sI8506
I8668
sI8508
I8670
sI8510
I8519
sI8512
I8521
sI8514
I8516
sI8516
I8519
sI8519
I8573
sI8520
I10707
sI8521
I8683
sI8524
I8527
sI8526
I8553
sI8527
I8689
sI8532
I8694
sI8534
I10721
sI8537
I8555
sI8538
I10725
sI8539
I8701
sI8543
I8549
sI8547
I8709
sI8549
I8630
sI8550
I10737
sI8551
I8713
sI8553
I8715
sI8555
I10742
sI8557
I10744
sI8560
I10747
sI8562
I8571
sI8563
I8725
sI8568
I10755
sI8569
I8731
sI8571
I8573
sI8573
NsI8575
I10762
sI8581
I10768
sI8586
I8588
sI8588
I8597
sI8591
I8645
sI8592
I10779
sI8593
NsI8597
I8651
sI8601
I8603
sI8603
I10790
sI8604
I8631
sI8605
NsI8607
I8609
sI8609
I8636
sI8615
I8621
sI8619
I8621
sI8621
I10808
sI8630
I13004
sI8631
I8633
sI8633
I10820
sI8636
I13010
sI8637
I10824
sI8638
NsI8640
I8649
sI8641
NsI8643
I8645
sI8645
NsI8649
I8651
sI8651
NsI8655
I10842
sI8656
NsI8661
I8662
sI8662
NsI8668
I8695
sI8670
I10857
sI8671
I8689
sI8676
I10863
sI8677
I8683
sI8679
I8733
sI8681
I10868
sI8683
I8710
sI8689
NsI8694
I8695
sI8695
I8701
sI8697
I8715
sI8699
I10886
sI8701
I8710
sI8703
I8709
sI8705
I8708
sI8708
I13082
sI8709
I8710
sI8710
I13084
sI8713
NsI8715
NsI8725
NsI8731
NsI8733
NsI8756
I8774
sI8768
I8774
sI8772
I8774
sI8774
NsI8804
I10262
sI8808
I10266
sI8810
I8891
sI8819
I10277
sI8820
I10278
sI8822
I9065
sI8825
I10283
sI8826
I9069
sI8827
I8989
sI8891
I8909
sI8903
I8909
sI8907
I8909
sI8909
NsI8912
I10370
sI8916
I10374
sI8918
I8945
sI8927
I9413
sI8928
I10386
sI8930
I8957
sI8933
I10391
sI8934
I8961
sI8935
I10393
sI8945
I8963
sI8957
I8963
sI8961
I8963
sI8963
NsI8964
I9450
sI8966
I8969
sI8969
I9455
sI8970
I8971
sI8971
I9457
sI8975
I9461
sI8979
I9465
sI8981
I9224
sI8982
I8983
sI8983
I9469
sI8985
I9471
sI8987
I9230
sI8989
I9232
sI9053
I9071
sI9065
I9071
sI9069
I9071
sI9071
NsI9161
I9179
sI9173
I9179
sI9177
I9179
sI9179
NsI9209
I10667
sI9213
I9231
sI9215
I9224
sI9224
NsI9225
I10683
sI9227
I9230
sI9230
I10688
sI9231
I9232
sI9232
I10690
sI9236
I10694
sI9240
I10698
sI9242
I9323
sI9251
I10709
sI9252
I10710
sI9254
I9281
sI9257
I9419
sI9258
I9285
sI9259
I9421
sI9269
I9287
sI9281
I9287
sI9285
I9287
sI9287
NsI9288
I9450
sI9290
I9299
sI9293
I9455
sI9294
I9303
sI9295
I9457
sI9299
I9461
sI9303
I9465
sI9305
I9386
sI9306
I9307
sI9307
I9469
sI9309
I9471
sI9311
I9392
sI9313
I9394
sI9323
I9341
sI9335
I9341
sI9339
I9341
sI9341
NsI9371
I10829
sI9375
I9377
sI9377
I9386
sI9386
I10844
sI9387
I9389
sI9389
I9392
sI9392
NsI9393
I9394
sI9394
NsI9396
I9450
sI9398
I9401
sI9401
I9455
sI9402
I9403
sI9403
I9457
sI9407
I9461
sI9411
I9465
sI9413
I9440
sI9414
I9415
sI9415
I9469
sI9417
I9471
sI9419
I9446
sI9421
I9448
sI9425
I10883
sI9429
I10887
sI9431
I9440
sI9440
I10898
sI9441
I10899
sI9443
I9446
sI9446
I10904
sI9447
I9448
sI9448
I10906
sI9450
NsI9455
NsI9457
NsI9461
NsI9465
NsI9469
NsI9471
NsI9539
NsI9551
NsI9555
NsI9647
NsI9659
NsI9663
NsI9695
NsI9699
NsI9710
NsI9711
NsI9716
NsI9718
NsI9944
NsI9956
NsI9960
NsI9971
NsI9983
NsI9987
NsI10019
NsI10023
NsI10034
NsI10035
NsI10040
NsI10042
NsI10106
NsI10118
NsI10122
NsI10127
NsI10131
NsI10142
NsI10143
NsI10148
NsI10150
NsI10160
NsI10172
NsI10176
NsI10208
I10262
sI10212
I10214
sI10214
I10295
sI10223
I10277
sI10224
I10386
sI10226
I10253
sI10229
I10283
sI10230
I10257
sI10231
I10393
sI10241
I10259
sI10253
I10259
sI10257
I10259
sI10259
NsI10260
I10262
sI10262
NsI10266
I10275
sI10267
I10429
sI10275
I10277
sI10277
NsI10278
I10521
sI10279
I10441
sI10281
I10283
sI10283
NsI10285
I10528
sI10295
I10313
sI10307
I10313
sI10311
I10313
sI10313
NsI10347
I10349
sI10349
NsI10359
I10361
sI10361
NsI10365
I10608
sI10366
NsI10368
I10386
sI10370
I10373
sI10373
I10391
sI10374
I10375
sI10375
I10393
sI10379
I10433
sI10383
I10869
sI10385
I10412
sI10386
NsI10391
NsI10393
NsI10397
I10415
sI10401
I10419
sI10403
I10646
sI10412
I10898
sI10415
NsI10419
NsI10422
I10423
sI10423
I10429
sI10425
I10427
sI10427
NsI10429
I10438
sI10431
I10433
sI10433
NsI10437
I10438
sI10438
I10924
sI10441
NsI10443
NsI10457
I10475
sI10469
I10475
sI10473
I10475
sI10475
NsI10509
I10511
sI10511
NsI10521
I10523
sI10523
NsI10527
I10528
sI10528
I10690
sI10608
I10610
sI10610
NsI10613
I10631
sI10617
I10635
sI10619
I10646
sI10628
NsI10631
NsI10635
NsI10646
I10664
sI10664
NsI10665
I10667
sI10667
NsI10671
I10672
sI10672
I10690
sI10680
NsI10683
NsI10688
NsI10690
NsI10692
I10854
sI10694
I10703
sI10697
I10751
sI10698
I10707
sI10699
I10861
sI10703
I10757
sI10707
I10761
sI10709
I10790
sI10710
I10737
sI10711
I10873
sI10713
I10875
sI10715
I10742
sI10717
I10744
sI10721
I10739
sI10725
I10743
sI10727
I10808
sI10736
I10898
sI10737
I10739
sI10739
I10742
sI10742
I10904
sI10743
I10744
sI10744
I10906
sI10746
I10755
sI10747
I10909
sI10749
I10751
sI10751
NsI10753
I10762
sI10755
I10757
sI10757
NsI10761
I10762
sI10762
I10924
sI10765
I10768
sI10767
I10768
sI10768
I10930
sI10775
I10781
sI10779
I10781
sI10781
I10790
sI10790
I10844
sI10791
I10793
sI10793
I10820
sI10796
NsI10797
I10824
sI10798
NsI10808
I10826
sI10820
I10826
sI10824
I10826
sI10826
NsI10827
I10829
sI10829
NsI10833
I10842
sI10834
NsI10842
I10844
sI10844
NsI10845
I10846
sI10846
NsI10848
NsI10854
I10855
sI10855
I10861
sI10857
I10859
sI10859
I10868
sI10861
I10870
sI10863
I10917
sI10865
I10868
sI10868
I10922
sI10869
I10870
sI10870
I10924
sI10873
NsI10875
NsI10881
I10899
sI10883
I10886
sI10886
I10904
sI10887
I10888
sI10888
I10906
sI10892
I10898
sI10896
I10898
sI10898
NsI10899
NsI10904
NsI10906
NsI10909
NsI10911
NsI10917
NsI10922
NsI10924
NsI10930
NsI10935
I11097
sI10937
I10940
sI10940
I10958
sI10941
I10968
sI10942
I11104
sI10946
I11432
sI10950
I11112
sI10952
I10979
sI10953
I11196
sI10954
I11116
sI10956
I11118
sI10958
I11201
sI10960
I11203
sI10964
I10982
sI10968
I11130
sI10970
I11699
sI10979
I11141
sI10980
I11142
sI10982
I11711
sI10985
I11147
sI10986
I11229
sI10987
I11149
sI10989
I10992
sI10990
I11152
sI10992
I10994
sI10994
I11075
sI10996
I11725
sI10998
I11484
sI11000
I11003
sI11003
I11489
sI11004
I11005
sI11005
I11167
sI11008
I11011
sI11010
I11253
sI11011
I11173
sI11018
I11036
sI11022
I11024
sI11024
I11051
sI11033
I11519
sI11034
I11036
sI11036
I11765
sI11039
I11093
sI11040
I11769
sI11041
NsI11051
I11069
sI11063
I11069
sI11067
I11069
sI11069
NsI11070
I11072
sI11072
I11075
sI11075
I12533
sI11076
I11319
sI11077
NsI11081
I12539
sI11085
I11087
sI11087
I11330
sI11088
I11331
sI11089
NsI11091
I11093
sI11093
I11336
sI11097
I11124
sI11098
I11104
sI11100
I11118
sI11102
I11129
sI11104
NsI11106
I11112
sI11108
I11837
sI11111
I11597
sI11112
NsI11116
I11119
sI11118
I11119
sI11119
I11173
sI11124
I11130
sI11126
I11855
sI11129
I11147
sI11130
NsI11135
I11141
sI11141
NsI11142
I11385
sI11143
I11149
sI11145
I12603
sI11147
I11390
sI11149
NsI11152
I11881
sI11154
I11883
sI11155
I11173
sI11160
I11889
sI11161
I11167
sI11163
I11649
sI11165
I11894
sI11167
NsI11173
I11416
sI11180
I11198
sI11184
I11346
sI11186
I11915
sI11195
NsI11196
I11358
sI11198
I11201
sI11201
I12659
sI11202
I11931
sI11203
I11365
sI11213
I11231
sI11225
I11231
sI11229
I11231
sI11231
NsI11232
I11250
sI11234
I11315
sI11237
I12695
sI11238
I11967
sI11239
I11401
sI11243
NsI11247
NsI11250
I11253
sI11251
I11413
sI11253
I12711
sI11255
I11336
sI11257
I11986
sI11267
I11285
sI11279
I11285
sI11283
I11285
sI11285
NsI11315
I11333
sI11319
I11321
sI11321
I12050
sI11330
NsI11331
I11333
sI11333
I11336
sI11336
I12794
sI11337
I12066
sI11338
NsI11340
I11346
sI11342
I11369
sI11345
I11363
sI11346
NsI11351
NsI11358
I11359
sI11359
I11365
sI11361
I12819
sI11363
I11390
sI11365
NsI11369
I11375
sI11375
NsI11385
I11387
sI11387
I11390
sI11390
I12848
sI11391
NsI11394
I11395
sI11395
I11401
sI11397
I11415
sI11399
I12128
sI11401
NsI11403
NsI11408
NsI11413
I11416
sI11415
I11416
sI11416
I12874
sI11421
I11424
sI11422
I11584
sI11424
I11426
sI11426
I11435
sI11428
I11437
sI11430
I11592
sI11432
I11435
sI11435
I11489
sI11436
I11463
sI11437
I11599
sI11440
I11443
sI11442
I11469
sI11443
I11605
sI11448
I11450
sI11450
I12179
sI11453
I11471
sI11454
I11463
sI11455
I11617
sI11459
I11465
sI11463
I11625
sI11465
I12194
sI11466
I11469
sI11467
I11629
sI11469
I11631
sI11471
I11552
sI11473
I11554
sI11476
I12205
sI11478
I12207
sI11479
I11641
sI11484
I11487
sI11485
I11647
sI11487
I11489
sI11489
I11570
sI11491
I12220
sI11497
I12226
sI11502
I11504
sI11504
I11507
sI11507
I11561
sI11508
I11535
sI11509
NsI11513
I12971
sI11517
I11519
sI11519
I11546
sI11520
I11547
sI11521
NsI11523
I11525
sI11525
I11552
sI11531
I11537
sI11535
I11537
sI11537
I12266
sI11546
I13004
sI11547
I11549
sI11549
I12278
sI11552
I13010
sI11553
I12282
sI11554
NsI11556
I11559
sI11557
NsI11559
I11561
sI11561
I11570
sI11565
I11567
sI11567
I11570
sI11570
I13028
sI11571
I11572
sI11572
NsI11577
I12306
sI11578
NsI11584
I11587
sI11586
I12315
sI11587
I11605
sI11592
I12321
sI11593
I11599
sI11595
I11649
sI11597
I12326
sI11599
NsI11605
I11632
sI11610
I11619
sI11611
I11617
sI11613
I11631
sI11615
I11624
sI11617
NsI11619
I11625
sI11621
I12350
sI11624
I13082
sI11625
NsI11629
I11632
sI11631
I11632
sI11632
I13090
sI11641
NsI11647
NsI11649
NsI11666
I11684
sI11670
I11832
sI11672
I11699
sI11681
I11843
sI11682
I11684
sI11684
I11711
sI11687
I11741
sI11688
I11931
sI11689
I11851
sI11699
I11717
sI11711
I11717
sI11715
I11717
sI11717
NsI11718
I11880
sI11720
I11723
sI11723
I11885
sI11724
I11967
sI11725
I11887
sI11729
I11891
sI11733
I11895
sI11735
I11816
sI11736
I11979
sI11737
I11899
sI11739
I11901
sI11741
I11822
sI11743
I11986
sI11753
I11771
sI11765
I11771
sI11769
I11771
sI11771
NsI11801
I11819
sI11805
I11807
sI11807
I12050
sI11816
NsI11817
I11819
sI11819
I12062
sI11822
I12308
sI11823
I12066
sI11824
NsI11826
I11832
sI11828
I11855
sI11831
I11885
sI11832
NsI11837
I11843
sI11843
NsI11844
I12087
sI11845
I11851
sI11847
I11901
sI11849
I11876
sI11851
NsI11855
I11861
sI11861
NsI11871
I11877
sI11873
I12116
sI11876
I12362
sI11877
NsI11880
I11881
sI11881
I11887
sI11883
I12369
sI11885
I11894
sI11887
NsI11889
I11895
sI11891
I11894
sI11894
I12380
sI11895
NsI11899
I11902
sI11901
I11902
sI11902
I12388
sI11915
I11933
sI11927
I11933
sI11931
I11933
sI11933
NsI11963
I11981
sI11967
I11985
sI11969
I12050
sI11978
NsI11979
I11985
sI11981
I12062
sI11984
I12146
sI11985
I11986
sI11986
I12148
sI12050
I12068
sI12062
I12068
sI12066
I12068
sI12068
NsI12071
I12077
sI12077
NsI12087
I12093
sI12089
I12116
sI12092
I12146
sI12093
NsI12116
I12122
sI12122
NsI12123
I12129
sI12125
I12128
sI12128
I12146
sI12129
NsI12134
NsI12141
I12142
sI12142
I12148
sI12144
I12146
sI12146
NsI12148
NsI12150
I12312
sI12152
I12179
sI12155
I12209
sI12156
I12183
sI12157
I12319
sI12161
I12323
sI12165
I12327
sI12167
I12194
sI12168
I12171
sI12169
I12223
sI12171
I12225
sI12173
I12200
sI12175
I12202
sI12179
I12185
sI12183
I12185
sI12185
I12194
sI12194
I12356
sI12195
I12197
sI12197
I12278
sI12200
I12362
sI12201
I12282
sI12202
NsI12204
I12207
sI12205
I12367
sI12207
I12369
sI12209
I12218
sI12211
I12220
sI12213
I12375
sI12215
I12218
sI12218
I12380
sI12219
I12220
sI12220
I12382
sI12223
I12226
sI12225
I12226
sI12226
I12388
sI12233
I12251
sI12237
I12239
sI12239
I12266
sI12248
NsI12249
I12251
sI12251
I12278
sI12254
I12308
sI12255
I12282
sI12256
NsI12266
I12284
sI12278
I12284
sI12282
I12284
sI12284
NsI12285
I12287
sI12287
I12290
sI12290
I12308
sI12291
I12292
sI12292
NsI12296
NsI12300
NsI12303
I12306
sI12304
NsI12306
I12308
sI12308
NsI12312
I12321
sI12313
I12319
sI12315
I12369
sI12317
I12326
sI12319
NsI12321
I12323
sI12323
I12326
sI12326
I12380
sI12327
NsI12331
I12334
sI12333
I12334
sI12334
I12388
sI12339
I12345
sI12341
I12350
sI12344
I12362
sI12345
NsI12350
I12356
sI12356
NsI12357
I12360
sI12358
NsI12360
I12362
sI12362
NsI12367
NsI12369
NsI12375
NsI12380
NsI12382
NsI12388
NsI12393
I12396
sI12394
I12556
sI12396
I12398
sI12398
I12479
sI12400
I12427
sI12402
I12888
sI12404
I12407
sI12407
I12461
sI12408
I12435
sI12409
I12571
sI12412
I12415
sI12414
I12657
sI12415
I12577
sI12420
I12582
sI12422
I12425
sI12425
I12443
sI12426
I12435
sI12427
I12589
sI12431
I12917
sI12435
I12597
sI12437
I12518
sI12438
I12441
sI12439
I12601
sI12441
I12603
sI12443
I12686
sI12445
I12688
sI12448
I12451
sI12450
I12693
sI12451
I12469
sI12456
I12459
sI12457
I12463
sI12459
I12461
sI12461
NsI12463
I12544
sI12469
I12712
sI12474
I12476
sI12476
I12479
sI12479
I12533
sI12480
I12489
sI12481
NsI12485
I12539
sI12489
I12491
sI12491
I12518
sI12492
I12495
sI12493
NsI12495
I12497
sI12497
I12740
sI12503
I12989
sI12507
I12509
sI12509
I12518
sI12518
I13004
sI12519
I12521
sI12521
I12524
sI12524
I13010
sI12525
I12526
sI12526
NsI12528
I12531
sI12529
NsI12531
I12533
sI12533
NsI12537
I12539
sI12539
NsI12543
I12544
sI12544
NsI12549
I12792
sI12550
NsI12556
I12583
sI12558
I12585
sI12559
I12577
sI12564
I12591
sI12565
I12571
sI12567
I12569
sI12569
I12596
sI12571
NsI12577
NsI12582
I12583
sI12583
I12589
sI12585
I12603
sI12587
I12830
sI12589
NsI12591
I12597
sI12593
I12596
sI12596
I13082
sI12597
NsI12601
NsI12603
NsI12613
I12856
sI12619
I12622
sI12621
I12622
sI12622
NsI12636
I12654
sI12638
I12641
sI12641
I12659
sI12642
I12643
sI12643
I12805
sI12647
NsI12651
NsI12654
I12657
sI12655
I12817
sI12657
I12659
sI12659
I12686
sI12661
I12688
sI12665
I12683
sI12669
I12831
sI12671
I12680
sI12680
NsI12681
I12843
sI12683
I12686
sI12686
I12848
sI12687
I12688
sI12688
I12850
sI12690
I12693
sI12691
I12709
sI12693
I12695
sI12695
NsI12697
I12706
sI12699
NsI12706
NsI12709
I12712
sI12711
I12712
sI12712
I12874
sI12719
I12773
sI12723
I12725
sI12725
I12734
sI12734
NsI12735
I12737
sI12737
I12740
sI12740
I12794
sI12741
I12742
sI12742
NsI12752
NsI12764
NsI12768
NsI12771
I12773
sI12773
NsI12777
I12778
sI12778
NsI12786
NsI12789
I12792
sI12790
NsI12792
I12794
sI12794
NsI12798
I12799
sI12799
I12805
sI12801
I12819
sI12803
I12830
sI12805
NsI12807
NsI12812
NsI12817
NsI12819
NsI12825
I12831
sI12827
I12830
sI12830
I12848
sI12831
NsI12836
NsI12843
NsI12848
NsI12850
NsI12853
I12856
sI12855
I12856
sI12856
I12874
sI12862
NsI12864
NsI12874
NsI12880
I12907
sI12882
I12909
sI12883
I12901
sI12888
I12915
sI12889
I12895
sI12891
I12893
sI12893
I12974
sI12895
I12922
sI12901
I12928
sI12906
I12909
sI12907
I13069
sI12909
I12927
sI12911
I12920
sI12913
I12922
sI12915
I12921
sI12917
I12920
sI12920
I13082
sI12921
I12922
sI12922
I13084
sI12925
I12928
sI12927
I12928
sI12928
I13090
sI12937
I12946
sI12943
I12946
sI12945
I13026
sI12946
NsI12960
I12963
sI12961
NsI12963
I12965
sI12965
I12974
sI12969
I12971
sI12971
I12974
sI12974
I13028
sI12975
I13002
sI12976
NsI12981
I13008
sI12982
NsI12987
I12989
sI12989
I12992
sI12992
I13010
sI12993
I13002
sI12994
NsI12998
I13004
sI13002
I13004
sI13004
NsI13005
I13008
sI13006
NsI13008
I13010
sI13010
NsI13017
I13026
sI13018
NsI13023
I13026
sI13024
NsI13026
I13028
sI13028
NsI13045
I13072
sI13051
I13078
sI13053
I13080
sI13054
NsI13069
I13072
sI13071
I13072
sI13072
I13090
sI13077
I13078
sI13078
I13084
sI13080
I13082
sI13082
NsI13084
NsI13090
NsI13122
I13365
sI13123
I13141
sI13125
I13143
sI13127
I13154
sI13129
I15316
sI13131
I13293
sI13133
I13136
sI13136
I13298
sI13137
I13380
sI13138
I14596
sI13141
I13144
sI13143
I13144
sI13144
I13630
sI13149
I14607
sI13151
I13154
sI13154
I13316
sI13155
I15342
sI13156
I14614
sI13160
I13322
sI13164
I13326
sI13166
I15353
sI13167
I15354
sI13168
I13654
sI13170
I13656
sI13172
I13901
sI13174
I15361
sI13177
I13420
sI13179
I13422
sI13180
I13198
sI13185
I13428
sI13186
I13192
sI13188
I13190
sI13190
I13433
sI13192
I13435
sI13198
I13441
sI13203
I14661
sI13205
I13448
sI13208
I17582
sI13209
I15396
sI13210
I14668
sI13214
I14672
sI13218
I14676
sI13220
I15407
sI13221
I13950
sI13222
I13708
sI13224
I13710
sI13226
I13955
sI13228
I15415
sI13232
I13718
sI13236
I13722
sI13238
I15425
sI13247
I13733
sI13248
I13734
sI13250
I13979
sI13253
I13739
sI13254
I15441
sI13255
I13741
sI13257
I13500
sI13258
I13276
sI13260
I17634
sI13262
I13505
sI13264
I13507
sI13266
I14724
sI13268
I13511
sI13271
I14729
sI13272
I13515
sI13273
I14731
sI13276
I14005
sI13278
I13279
sI13279
I13765
sI13285
I15472
sI13287
I15474
sI13288
I13306
sI13293
I13536
sI13294
I13300
sI13296
I13298
sI13298
NsI13300
I13543
sI13306
I15493
sI13311
I13554
sI13312
I14770
sI13314
I13316
sI13316
NsI13318
I13561
sI13320
I13322
sI13322
NsI13326
I13569
sI13327
I17701
sI13330
I13333
sI13332
I13575
sI13333
I13819
sI13342
I15529
sI13348
I14077
sI13350
I14079
sI13351
NsI13365
I13527
sI13367
I15554
sI13370
I13532
sI13371
I15558
sI13372
I13426
sI13376
I13538
sI13380
I13542
sI13382
I15569
sI13383
I13386
sI13384
I14842
sI13386
I13548
sI13388
I14117
sI13390
I15577
sI13394
I13556
sI13398
I13560
sI13400
I14129
sI13409
I13571
sI13410
I13572
sI13412
I14141
sI13415
I13577
sI13416
I15603
sI13417
I13579
sI13419
I15606
sI13420
I13426
sI13422
I13424
sI13424
I13433
sI13426
I13435
sI13428
I14886
sI13430
I13433
sI13433
I13595
sI13434
I13435
sI13435
I17809
sI13438
I13441
sI13440
I13441
sI13441
I14899
sI13448
I13502
sI13452
I13506
sI13454
I15641
sI13463
I13517
sI13464
I13518
sI13466
I14195
sI13469
I13523
sI13470
I14199
sI13471
I13525
sI13481
NsI13493
NsI13497
NsI13500
I14958
sI13502
I15689
sI13505
I14963
sI13506
I15693
sI13507
I14965
sI13511
I14969
sI13515
I14973
sI13517
I15704
sI13518
I13519
sI13519
I14977
sI13521
I17895
sI13523
I14252
sI13525
I14254
sI13527
I15714
sI13528
I14986
sI13530
I13532
sI13532
NsI13534
I13543
sI13536
I13538
sI13538
NsI13542
I13569
sI13543
I17917
sI13546
I13549
sI13548
I13575
sI13549
I15007
sI13554
I13556
sI13556
NsI13560
I13569
sI13561
I15019
sI13569
I13571
sI13571
NsI13572
I13575
sI13573
I15031
sI13575
I13577
sI13577
NsI13579
I15766
sI13582
I14311
sI13584
I15771
sI13585
I13603
sI13590
I14319
sI13591
I13597
sI13593
I13595
sI13595
NsI13597
I14326
sI13603
I15790
sI13609
I15796
sI13611
I13638
sI13612
I13630
sI13617
I13644
sI13618
I13624
sI13620
I13622
sI13622
I13649
sI13624
I15811
sI13630
NsI13635
I15822
sI13636
I13654
sI13638
I13656
sI13640
I13649
sI13642
I13723
sI13644
I15102
sI13646
I13649
sI13649
I13811
sI13650
I15837
sI13651
I15109
sI13654
NsI13656
NsI13666
I14395
sI13672
I15859
sI13674
I14403
sI13675
NsI13689
I13716
sI13690
I13708
sI13692
I13710
sI13694
I13721
sI13696
I15883
sI13698
I15156
sI13700
I13727
sI13703
I15161
sI13704
I13705
sI13705
I15163
sI13708
NsI13710
NsI13716
I13734
sI13718
I13721
sI13721
I13739
sI13722
I15909
sI13723
I13741
sI13727
I15185
sI13731
I15189
sI13733
I15920
sI13734
NsI13739
NsI13741
NsI13744
I15931
sI13746
I13747
sI13747
I13765
sI13752
I13753
sI13753
I13759
sI13755
I13757
sI13757
I14486
sI13759
I15946
sI13765
NsI13774
I15961
sI13780
I15967
sI13782
I14511
sI13783
NsI13798
I15985
sI13800
I15987
sI13801
I13819
sI13806
I15993
sI13807
I13813
sI13809
I13811
sI13811
NsI13813
I16000
sI13819
NsI13851
I14013
sI13853
I13880
sI13856
I14018
sI13857
I16044
sI13858
I13912
sI13862
I14024
sI13866
I14028
sI13868
I13895
sI13869
I16056
sI13870
I14356
sI13872
I14358
sI13874
I13901
sI13876
I13957
sI13880
I14042
sI13884
I13886
sI13886
I16073
sI13895
I14057
sI13896
I14382
sI13898
I13901
sI13901
I14063
sI13902
I16089
sI13903
NsI13905
I16092
sI13906
I13924
sI13908
I14070
sI13910
I14153
sI13912
I16099
sI13914
I14076
sI13916
I13919
sI13919
I14081
sI13920
I13921
sI13921
I14083
sI13924
I13927
sI13926
I13927
sI13927
I14413
sI13934
I13952
sI13938
I13956
sI13940
I16127
sI13949
NsI13950
I14436
sI13952
I13979
sI13955
I14441
sI13956
I16143
sI13957
I14443
sI13967
I13985
sI13979
I13985
sI13983
I13985
sI13985
NsI13986
I14004
sI13988
I14231
sI13991
I14009
sI13992
I16179
sI13993
I14011
sI13997
NsI14001
NsI14004
I14005
sI14005
I14491
sI14007
I14493
sI14009
I14252
sI14011
I16198
sI14013
I16200
sI14014
I14068
sI14016
I14018
sI14018
NsI14020
I14029
sI14022
I14024
sI14024
NsI14028
I14271
sI14029
I14083
sI14032
I14035
sI14034
I16221
sI14035
I14521
sI14040
I14042
sI14042
NsI14046
I14055
sI14047
NsI14055
I14057
sI14057
NsI14058
I14061
sI14059
NsI14061
I14063
sI14063
NsI14068
I16255
sI14070
I16257
sI14071
I14557
sI14076
I14319
sI14077
I14083
sI14079
I14081
sI14081
NsI14083
I14326
sI14089
I16276
sI14096
I14258
sI14100
I14262
sI14102
I16289
sI14111
I14273
sI14112
I14114
sI14114
I16301
sI14117
I14279
sI14118
I16305
sI14119
I14173
sI14129
I14147
sI14141
I14147
sI14145
I14147
sI14147
NsI14148
I14310
sI14150
I16337
sI14153
I14315
sI14154
I16341
sI14155
I14317
sI14159
I14321
sI14163
I14325
sI14165
I16352
sI14166
I16353
sI14167
I14173
sI14169
I14171
sI14171
I16358
sI14173
I14254
sI14183
I14201
sI14195
I14201
sI14199
I14201
sI14201
NsI14231
I14249
sI14235
I14253
sI14237
I16424
sI14246
NsI14247
I14249
sI14249
I16436
sI14252
I18626
sI14253
I16440
sI14254
I18628
sI14256
I14258
sI14258
NsI14262
I14271
sI14263
I18637
sI14271
I14273
sI14273
NsI14274
I14277
sI14275
I14329
sI14277
I14279
sI14279
NsI14281
I16468
sI14289
I14291
sI14291
NsI14301
I14303
sI14303
NsI14307
I16494
sI14308
NsI14310
I14319
sI14311
I14317
sI14313
I14315
sI14315
NsI14317
I14326
sI14319
I14321
sI14321
NsI14325
I14326
sI14326
I18700
sI14329
I14332
sI14331
I16518
sI14332
I18706
sI14337
I16524
sI14338
I14356
sI14340
I14358
sI14342
I14369
sI14344
I16531
sI14346
I14508
sI14348
I14351
sI14351
I14513
sI14352
I16539
sI14353
I14407
sI14356
NsI14358
NsI14364
I14382
sI14366
I14369
sI14369
I14387
sI14370
I16557
sI14371
NsI14375
I14537
sI14379
I14381
sI14381
I16568
sI14382
NsI14387
NsI14392
I16579
sI14394
I14395
sI14395
I14413
sI14400
I16587
sI14401
I14563
sI14403
I14565
sI14405
I16592
sI14407
I16594
sI14413
NsI14418
I14436
sI14420
I14447
sI14423
I14441
sI14424
I16611
sI14425
I14443
sI14429
NsI14433
NsI14436
NsI14441
NsI14443
NsI14447
I14465
sI14451
I14469
sI14453
I16640
sI14462
NsI14465
NsI14469
NsI14472
I14473
sI14473
I14491
sI14475
I14493
sI14477
I14486
sI14479
I16666
sI14481
NsI14486
NsI14488
NsI14491
NsI14493
NsI14500
I16687
sI14502
I16689
sI14503
I14521
sI14508
I16695
sI14509
I14563
sI14511
I14513
sI14513
NsI14515
I16702
sI14521
NsI14526
I14529
sI14527
NsI14529
I14531
sI14531
NsI14535
I14537
sI14537
NsI14541
I16728
sI14542
NsI14547
NsI14557
NsI14563
NsI14565
NsI14581
I14608
sI14583
I14610
sI14584
I18958
sI14589
I14832
sI14590
I18964
sI14592
I18966
sI14594
I14621
sI14596
I14623
sI14602
I14629
sI14607
I14608
sI14608
I18982
sI14610
I18984
sI14612
I14621
sI14614
I14623
sI14616
I18990
sI14618
I14621
sI14621
I14783
sI14622
I14623
sI14623
I18997
sI14626
I14629
sI14628
I14629
sI14629
I14791
sI14638
I14881
sI14644
I14725
sI14646
I14889
sI14647
NsI14661
I14662
sI14662
I19036
sI14664
I19038
sI14666
I14675
sI14668
I14677
sI14670
I19044
sI14672
I14675
sI14675
I14729
sI14676
I14677
sI14677
I19051
sI14680
I14683
sI14682
I14683
sI14683
I15169
sI14688
I19062
sI14690
I14699
sI14693
I19067
sI14694
I14695
sI14695
I15181
sI14699
I19073
sI14703
I19077
sI14705
I16892
sI14706
I14707
sI14707
I15193
sI14709
I15195
sI14711
I14954
sI14713
I16900
sI14716
I14959
sI14718
I14961
sI14719
I19093
sI14724
I14967
sI14725
I19099
sI14727
I14729
sI14729
NsI14731
I14974
sI14737
I14980
sI14746
I14773
sI14752
I14779
sI14754
I14781
sI14755
NsI14770
I15013
sI14772
I15015
sI14773
I14791
sI14778
I15021
sI14779
I19153
sI14781
I14783
sI14783
NsI14785
I15028
sI14791
NsI14823
I14832
sI14824
I19198
sI14826
I19200
sI14828
I14837
sI14830
I14839
sI14832
I19206
sI14834
I14837
sI14837
I14891
sI14838
I14839
sI14839
I19213
sI14842
I14845
sI14844
I14845
sI14845
I14899
sI14850
I15012
sI14852
I14855
sI14855
I15017
sI14856
I14857
sI14857
I15019
sI14861
I15023
sI14865
I15027
sI14867
I17054
sI14868
I14869
sI14869
I15031
sI14871
I15033
sI14873
I17060
sI14875
I17062
sI14878
I14959
sI14880
I14881
sI14881
I14899
sI14886
I14967
sI14887
I19261
sI14889
I14891
sI14891
NsI14893
I14974
sI14899
I14980
sI14904
I19278
sI14906
I14915
sI14909
I14963
sI14910
I14919
sI14911
I19285
sI14915
I14969
sI14919
I14973
sI14921
I17108
sI14922
I14923
sI14923
I19297
sI14925
I19299
sI14927
I14954
sI14929
I17116
sI14933
NsI14937
NsI14948
NsI14949
NsI14954
NsI14956
NsI14958
I14967
sI14959
I19333
sI14961
I14963
sI14963
NsI14965
I14974
sI14967
I14969
sI14969
NsI14973
I14974
sI14974
I19348
sI14977
I14980
sI14979
I14980
sI14980
I19354
sI14986
I15013
sI14988
I15015
sI14989
I15007
sI14994
I15021
sI14995
I19369
sI14997
I14999
sI14999
NsI15001
I15028
sI15007
NsI15012
I15013
sI15013
I15019
sI15015
I15017
sI15017
NsI15019
I15028
sI15021
I15023
sI15023
NsI15027
I15028
sI15028
I19402
sI15031
NsI15033
NsI15043
I17230
sI15049
I17236
sI15051
I17238
sI15052
NsI15070
I15097
sI15076
I15103
sI15078
I15105
sI15079
NsI15094
I15175
sI15096
I15097
sI15097
I15115
sI15102
I15183
sI15103
I19477
sI15105
I15107
sI15107
I15188
sI15109
I15190
sI15115
NsI15148
I15175
sI15150
I15177
sI15151
I15169
sI15156
I15183
sI15157
I19531
sI15159
I19533
sI15161
I15188
sI15163
I15190
sI15169
NsI15174
I15175
sI15175
I15181
sI15177
I15195
sI15179
I15188
sI15181
I15190
sI15183
I19557
sI15185
I15188
sI15188
I19562
sI15189
I15190
sI15190
I19564
sI15193
NsI15195
NsI15205
I15214
sI15211
I17398
sI15213
I15214
sI15214
NsI15259
I17446
sI15265
I17452
sI15267
I17454
sI15268
NsI15309
I15471
sI15311
I15554
sI15314
I15476
sI15315
I15558
sI15316
I15334
sI15320
I15482
sI15324
I15486
sI15326
I15569
sI15327
I16056
sI15328
I15814
sI15330
I15492
sI15332
I15359
sI15334
I15415
sI15338
I15500
sI15342
I15344
sI15344
I16073
sI15353
I15515
sI15354
I15840
sI15356
I16085
sI15359
I15521
sI15360
I15361
sI15361
I15847
sI15363
I15606
sI15364
I15370
sI15366
I15528
sI15368
I15377
sI15370
I16099
sI15372
I15534
sI15374
I15617
sI15377
I15539
sI15378
I15621
sI15379
I15541
sI15382
I16111
sI15384
I15385
sI15385
I15547
sI15392
I15398
sI15396
I15414
sI15398
I15641
sI15407
I16865
sI15408
I15894
sI15410
I16139
sI15413
NsI15414
I16143
sI15415
I15901
sI15425
I15443
sI15437
I15443
sI15441
I15443
sI15443
NsI15444
I15450
sI15446
I15689
sI15449
NsI15450
I15693
sI15451
I15469
sI15455
I16913
sI15459
I16917
sI15461
I15704
sI15462
I16191
sI15463
I15949
sI15465
NsI15469
I16198
sI15471
I15714
sI15472
I15490
sI15474
I15476
sI15476
NsI15478
I15487
sI15480
I15482
sI15482
NsI15486
I16215
sI15487
I15541
sI15490
I15493
sI15492
I15493
sI15493
I15547
sI15498
I15500
sI15500
NsI15504
I15747
sI15505
I16963
sI15513
I15515
sI15515
NsI15516
I15519
sI15517
I16003
sI15519
I15521
sI15521
NsI15523
I15766
sI15526
I16255
sI15528
I15771
sI15529
I15547
sI15534
I16263
sI15535
I16021
sI15537
I15539
sI15539
NsI15541
I16270
sI15547
I15790
sI15554
I15716
sI15558
I15720
sI15560
I15569
sI15569
I15623
sI15570
I15732
sI15572
I16301
sI15575
I15737
sI15576
I16305
sI15577
I15739
sI15587
I15605
sI15599
I15605
sI15603
I15605
sI15605
NsI15606
I15768
sI15608
I15617
sI15611
I15773
sI15612
I15621
sI15613
I15631
sI15617
I15623
sI15621
I15623
sI15623
I15704
sI15624
I16353
sI15625
I15787
sI15627
I15789
sI15629
I16358
sI15631
I15712
sI15641
I15659
sI15653
I15659
sI15657
I15659
sI15659
NsI15689
I15695
sI15693
I15695
sI15695
I15704
sI15704
I17162
sI15705
I15711
sI15707
I16436
sI15710
NsI15711
I16440
sI15712
I17170
sI15714
I15716
sI15716
NsI15720
I15747
sI15721
I15739
sI15729
I15731
sI15731
NsI15732
I15735
sI15733
I17191
sI15735
I15737
sI15737
NsI15739
I15766
sI15747
I15749
sI15749
NsI15759
I15761
sI15761
NsI15765
I15766
sI15766
I17224
sI15768
I15771
sI15769
I15787
sI15771
I15773
sI15773
NsI15775
I15784
sI15777
I15779
sI15779
NsI15783
I16512
sI15784
I17242
sI15787
I15790
sI15789
I15790
sI15790
I17248
sI15795
I15822
sI15796
I15814
sI15798
I15816
sI15800
I15827
sI15802
I15883
sI15804
I15966
sI15806
I15833
sI15809
I15971
sI15810
I15811
sI15811
I15865
sI15814
NsI15816
NsI15822
I15840
sI15824
I16553
sI15827
I15845
sI15828
I15909
sI15829
I15847
sI15833
I15995
sI15837
I15839
sI15839
I16568
sI15840
NsI15845
NsI15847
NsI15850
I16579
sI15852
I16581
sI15853
I15871
sI15858
I15859
sI15859
I16021
sI15861
I16023
sI15863
I16592
sI15865
I16594
sI15871
NsI15876
I15894
sI15878
I15905
sI15881
NsI15882
I15883
sI15883
I15901
sI15887
I15893
sI15891
I17349
sI15893
I15920
sI15894
NsI15901
NsI15905
I15923
sI15909
I15927
sI15911
I16640
sI15920
I17378
sI15923
NsI15927
NsI15930
I15931
sI15931
I15949
sI15933
NsI15937
I16666
sI15939
I15945
sI15941
I15944
sI15944
NsI15945
I15946
sI15946
I17404
sI15949
NsI15958
I15961
sI15960
I15987
sI15961
I15979
sI15966
I16695
sI15967
I16021
sI15969
I15971
sI15971
NsI15973
I16702
sI15979
NsI15984
I15987
sI15985
I16003
sI15987
I15989
sI15989
NsI15991
I16000
sI15993
I15995
sI15995
NsI15999
I16728
sI16000
I17458
sI16003
NsI16005
NsI16015
NsI16021
NsI16023
NsI16040
I16202
sI16044
I16062
sI16046
I16073
sI16055
I16217
sI16056
I16542
sI16058
I16085
sI16061
I16223
sI16062
I16143
sI16063
I16549
sI16073
I16091
sI16085
I16091
sI16089
I16091
sI16091
NsI16092
I16254
sI16094
I16337
sI16097
I16259
sI16098
I16099
sI16099
I16585
sI16103
I16265
sI16107
I16269
sI16109
I16352
sI16110
I16111
sI16111
I16597
sI16113
I16275
sI16115
I16358
sI16117
I16198
sI16127
I16145
sI16139
I16145
sI16143
I16145
sI16145
NsI16175
I16181
sI16179
I16197
sI16181
I16424
sI16190
NsI16191
I16197
sI16193
I16436
sI16196
NsI16197
I16198
sI16198
I16684
sI16200
I16202
sI16202
NsI16206
I16215
sI16207
I16261
sI16215
I16217
sI16217
NsI16218
I16221
sI16219
I16705
sI16221
I16223
sI16223
NsI16225
I16468
sI16233
I16235
sI16235
NsI16245
I16247
sI16247
NsI16251
I16494
sI16252
NsI16254
I16257
sI16255
I16741
sI16257
I16259
sI16259
NsI16261
I16270
sI16263
I16265
sI16265
NsI16269
I16270
sI16270
I16756
sI16273
I16276
sI16275
I16276
sI16276
I16762
sI16289
I16307
sI16301
I16307
sI16305
I16307
sI16307
NsI16337
I16343
sI16341
I16343
sI16343
I16352
sI16352
I16514
sI16353
I16355
sI16355
I16358
sI16358
I16520
sI16359
I16440
sI16360
I16522
sI16424
I16442
sI16436
I16442
sI16440
I16442
sI16442
NsI16449
I16451
sI16451
NsI16461
I16463
sI16463
NsI16467
I16494
sI16468
I16522
sI16494
I16496
sI16496
NsI16497
I16499
sI16499
NsI16503
I16512
sI16504
I16522
sI16512
I16514
sI16514
NsI16515
I16518
sI16516
I16522
sI16518
I16520
sI16520
NsI16522
NsI16524
I16542
sI16526
I16553
sI16529
I16547
sI16530
I16531
sI16531
I16549
sI16535
I16697
sI16539
I16701
sI16541
I16568
sI16542
NsI16547
NsI16549
NsI16553
I16559
sI16557
I16559
sI16559
I16568
sI16568
I16730
sI16571
NsI16575
NsI16578
I16579
sI16579
I16585
sI16581
I16599
sI16583
I16592
sI16585
I16594
sI16587
I16749
sI16589
I16592
sI16592
I16754
sI16593
I16594
sI16594
I16756
sI16597
NsI16599
NsI16607
I16625
sI16611
I16629
sI16613
I16640
sI16622
NsI16625
NsI16629
NsI16640
I16658
sI16658
NsI16659
I16677
sI16661
I16664
sI16664
NsI16665
I16666
sI16666
I16684
sI16670
NsI16674
NsI16677
NsI16684
NsI16686
I16689
sI16687
I16705
sI16689
I16691
sI16691
NsI16693
I16702
sI16695
I16697
sI16697
NsI16701
I16702
sI16702
I16756
sI16705
NsI16707
NsI16713
I16715
sI16715
NsI16719
I16728
sI16720
NsI16728
I16730
sI16730
NsI16731
NsI16736
NsI16741
NsI16743
NsI16749
NsI16754
NsI16756
NsI16762
NsI16767
I16794
sI16768
I16786
sI16770
I16932
sI16772
I16781
sI16774
I16801
sI16776
I16778
sI16778
I17021
sI16781
I16835
sI16782
I17025
sI16783
I16837
sI16786
I16813
sI16788
I16789
sI16789
I16951
sI16794
I16956
sI16796
I16805
sI16799
I16961
sI16800
I16801
sI16801
I16819
sI16805
I16967
sI16809
I16811
sI16811
I17054
sI16812
I16813
sI16813
I16819
sI16815
I16977
sI16817
I17060
sI16819
I16900
sI16822
I17065
sI16824
I17067
sI16825
I16843
sI16830
I17073
sI16831
I16837
sI16833
I16835
sI16835
NsI16837
I16918
sI16843
I17086
sI16848
I16854
sI16850
I16859
sI16853
NsI16854
I16855
sI16855
I16873
sI16859
I16913
sI16863
I16865
sI16865
I17108
sI16866
I16867
sI16867
I17353
sI16869
NsI16873
I16900
sI16877
I16883
sI16881
I17367
sI16883
I16892
sI16892
I17378
sI16893
I17379
sI16895
I16898
sI16898
NsI16899
I16900
sI16900
I17386
sI16902
I16911
sI16903
I16909
sI16905
NsI16909
I16918
sI16911
I16913
sI16913
NsI16917
I17160
sI16918
I17404
sI16921
I17164
sI16924
NsI16930
I16957
sI16932
I16959
sI16933
I16951
sI16938
I16965
sI16939
I16945
sI16941
I16943
sI16943
NsI16945
I16972
sI16951
NsI16956
I16959
sI16957
I16975
sI16959
I16961
sI16961
NsI16963
I17206
sI16965
I16967
sI16967
NsI16971
I17214
sI16972
I17458
sI16975
NsI16977
NsI16987
I17230
sI16993
I17236
sI16995
I17238
sI16996
NsI17010
I17172
sI17012
I17021
sI17015
I17069
sI17016
I17025
sI17017
I17035
sI17021
I17027
sI17025
I17027
sI17027
I17054
sI17028
I17029
sI17029
I17191
sI17031
I17193
sI17033
I17060
sI17035
I17062
sI17039
I17201
sI17043
I17205
sI17045
I17054
sI17054
I17216
sI17055
I17217
sI17057
I17060
sI17060
I17222
sI17061
I17062
sI17062
I17224
sI17064
I17073
sI17065
I17083
sI17067
I17069
sI17069
NsI17071
I17080
sI17073
I17075
sI17075
NsI17079
I17160
sI17080
I17242
sI17083
I17086
sI17085
I17086
sI17086
I17248
sI17093
I17147
sI17097
I17151
sI17099
I17108
sI17108
I17162
sI17109
I17115
sI17111
I17114
sI17114
NsI17115
I17116
sI17116
I17170
sI17126
NsI17138
NsI17142
NsI17145
I17147
sI17147
NsI17151
I17160
sI17152
I17170
sI17160
I17162
sI17162
NsI17163
I17164
sI17164
I17170
sI17166
NsI17170
NsI17172
I17175
sI17173
I17191
sI17175
I17177
sI17177
NsI17179
I17206
sI17181
I17183
sI17183
NsI17187
I17214
sI17188
I17242
sI17191
NsI17193
NsI17199
I17201
sI17201
NsI17205
I17206
sI17206
I17224
sI17214
I17216
sI17216
NsI17217
NsI17222
NsI17224
NsI17227
I17230
sI17229
I17230
sI17230
I17248
sI17235
I17238
sI17236
I17242
sI17238
I17240
sI17240
NsI17242
NsI17248
NsI17254
I17281
sI17256
I17283
sI17257
I17275
sI17262
I17289
sI17263
I17269
sI17265
I17267
sI17267
I17294
sI17269
I17296
sI17275
NsI17280
I17281
sI17281
I17299
sI17283
I17301
sI17285
I17294
sI17287
I17368
sI17289
I17291
sI17291
I17294
sI17294
I17456
sI17295
I17296
sI17296
I17458
sI17299
NsI17301
NsI17311
I17320
sI17317
I17398
sI17319
I17320
sI17320
NsI17334
I17335
sI17335
I17353
sI17337
NsI17341
I17368
sI17343
I17349
sI17345
I17372
sI17348
NsI17349
I17350
sI17350
I17404
sI17353
NsI17361
I17379
sI17363
I17372
sI17366
NsI17367
I17368
sI17368
I17386
sI17372
I17378
sI17376
I17378
sI17378
NsI17379
NsI17386
NsI17389
I17398
sI17392
NsI17397
I17398
sI17398
I17404
sI17400
NsI17404
NsI17419
I17446
sI17425
I17452
sI17427
I17454
sI17428
NsI17443
I17446
sI17445
I17446
sI17446
I17464
sI17451
I17454
sI17452
I17458
sI17454
I17456
sI17456
NsI17458
NsI17464
NsI17497
I17740
sI17499
I17742
sI17500
I18958
sI17505
I17748
sI17506
I18964
sI17508
I18966
sI17510
I17537
sI17512
I17755
sI17518
I17599
sI17523
I17526
sI17524
I18982
sI17526
I18984
sI17528
I17537
sI17530
I17539
sI17532
I18990
sI17534
I17537
sI17537
I17699
sI17538
I17539
sI17539
I17701
sI17542
I17545
sI17544
I17545
sI17545
I18031
sI17554
I17635
sI17560
I17803
sI17562
I17805
sI17563
NsI17577
I17580
sI17578
I19036
sI17580
I19038
sI17582
I17609
sI17584
I17827
sI17586
I19044
sI17588
I17591
sI17591
I19049
sI17592
I17593
sI17593
I19051
sI17596
I17599
sI17598
I17599
sI17599
I17653
sI17604
I19062
sI17606
I17609
sI17609
I18095
sI17610
I17611
sI17611
I19069
sI17615
I19073
sI17619
I19077
sI17621
I17864
sI17622
I17625
sI17623
I18109
sI17625
I18111
sI17627
I18356
sI17629
I17872
sI17632
I17875
sI17634
I17877
sI17635
I17653
sI17640
I17883
sI17641
I19099
sI17643
I19101
sI17645
I17888
sI17647
I17890
sI17653
I17896
sI17662
I17905
sI17668
I17911
sI17670
I17697
sI17671
NsI17686
I17929
sI17688
I17931
sI17689
I19147
sI17694
I17937
sI17695
I17701
sI17697
I17699
sI17699
NsI17701
NsI17707
I17950
sI17739
I17742
sI17740
I19198
sI17742
I19200
sI17744
I17753
sI17746
I17755
sI17748
I19206
sI17750
I17753
sI17753
I17807
sI17754
I17755
sI17755
I17809
sI17758
I17761
sI17760
I17761
sI17761
I19219
sI17766
I19224
sI17768
I17771
sI17771
I17933
sI17772
I17781
sI17773
I17935
sI17777
I17939
sI17781
I17943
sI17783
I18512
sI17784
I17787
sI17785
I19243
sI17787
I17949
sI17789
I18518
sI17791
I17872
sI17794
I17875
sI17796
I17877
sI17797
I19255
sI17802
I17803
sI17803
I17809
sI17805
I17807
sI17807
I17888
sI17809
I17890
sI17815
I17896
sI17820
I19278
sI17822
I17825
sI17825
I19283
sI17826
I17827
sI17827
I19285
sI17831
I19289
sI17835
I19293
sI17837
I17864
sI17838
I17839
sI17839
I19297
sI17841
I19299
sI17843
I18572
sI17845
I18574
sI17849
NsI17853
NsI17864
NsI17865
NsI17870
NsI17872
NsI17874
I17875
sI17875
I19333
sI17877
I19335
sI17879
I17888
sI17881
I17890
sI17883
I19341
sI17885
I17888
sI17888
I19346
sI17889
I17890
sI17890
I19348
sI17893
I17896
sI17895
I17896
sI17896
I19354
sI17902
I17911
sI17904
I17931
sI17905
I19363
sI17910
I17937
sI17911
I17917
sI17913
I17915
sI17915
NsI17917
NsI17923
I17950
sI17928
I17931
sI17929
I17935
sI17931
I17933
sI17933
NsI17935
NsI17937
I17939
sI17939
NsI17943
NsI17947
I17950
sI17949
I17950
sI17950
I19408
sI17959
I18688
sI17965
I18694
sI17967
I18696
sI17968
NsI17986
I18067
sI17992
I18019
sI17994
I18021
sI17995
NsI18010
I18091
sI18012
I18093
sI18013
I18031
sI18018
I18021
sI18019
I19477
sI18021
I18023
sI18023
I18104
sI18025
I18106
sI18031
NsI18064
I18067
sI18066
I18093
sI18067
I18085
sI18072
I18099
sI18073
I19531
sI18075
I19533
sI18077
I18104
sI18079
I18106
sI18085
NsI18090
I18093
sI18091
I18109
sI18093
I18095
sI18095
I18104
sI18097
I18106
sI18099
I19557
sI18101
I18104
sI18104
I19562
sI18105
I18106
sI18106
I19564
sI18109
NsI18111
NsI18121
I18850
sI18127
I18130
sI18129
I18130
sI18130
NsI18175
I18184
sI18181
I18184
sI18183
I18912
sI18184
NsI18225
I18228
sI18226
I18280
sI18228
I18246
sI18230
I18257
sI18232
I18475
sI18234
I18396
sI18236
I18239
sI18239
I18401
sI18240
I18483
sI18241
I18403
sI18244
I18247
sI18246
I18327
sI18247
I18733
sI18252
I18254
sI18254
I18257
sI18257
I18275
sI18258
I18267
sI18259
NsI18263
I18425
sI18267
I18429
sI18269
I18512
sI18270
I18273
sI18271
NsI18273
I18275
sI18275
I18356
sI18280
I18523
sI18282
I18525
sI18283
I18301
sI18288
I18531
sI18289
I18295
sI18291
I18293
sI18293
I18536
sI18295
I18538
sI18301
I18382
sI18306
I18324
sI18308
I18311
sI18311
I18329
sI18312
I18313
sI18313
I18331
sI18317
NsI18321
NsI18324
I18327
sI18325
I18811
sI18327
I18813
sI18329
I18356
sI18331
I18574
sI18335
I18353
sI18339
I18341
sI18341
I18350
sI18350
NsI18351
I18837
sI18353
I18356
sI18356
I18842
sI18357
I18358
sI18358
NsI18360
I18361
sI18361
I18379
sI18363
I18381
sI18365
I18608
sI18367
I18610
sI18369
NsI18374
NsI18376
NsI18379
I18382
sI18381
I18382
sI18382
I18868
sI18388
I18631
sI18390
I18633
sI18391
I18409
sI18396
I18639
sI18397
I18403
sI18399
I18401
sI18401
NsI18403
NsI18409
I18652
sI18414
I18423
sI18415
NsI18417
I18419
sI18419
NsI18423
I18425
sI18425
NsI18429
NsI18435
I18678
sI18436
NsI18445
I18688
sI18451
I18694
sI18453
I18696
sI18454
NsI18468
I18630
sI18470
I18473
sI18473
I18635
sI18474
I18475
sI18475
I18637
sI18479
I18641
sI18483
I18645
sI18485
I18512
sI18486
I18489
sI18487
I18541
sI18489
I18491
sI18491
I18518
sI18493
I18574
sI18497
I18659
sI18501
I18663
sI18503
I18512
sI18512
I18674
sI18513
I18515
sI18515
I18518
sI18518
I18680
sI18519
I18520
sI18520
NsI18522
I18523
sI18523
I18529
sI18525
I18527
sI18527
I18536
sI18529
I18538
sI18531
I18693
sI18533
I18536
sI18536
I18698
sI18537
I18538
sI18538
I18700
sI18541
I18544
sI18543
I18544
sI18544
I18706
sI18551
I18569
sI18555
I18573
sI18557
I18566
sI18566
NsI18567
I18621
sI18569
I18572
sI18572
I18626
sI18573
I18574
sI18574
I18628
sI18584
NsI18596
NsI18600
NsI18603
I18621
sI18605
I18608
sI18608
I18626
sI18609
I18610
sI18610
I18628
sI18614
NsI18618
NsI18621
I18622
sI18622
I18628
sI18624
I18626
sI18626
NsI18628
NsI18630
I18639
sI18631
I18637
sI18633
I18635
sI18635
NsI18637
NsI18639
I18641
sI18641
NsI18645
NsI18649
I18652
sI18651
I18678
sI18652
I18706
sI18657
I18659
sI18659
NsI18663
NsI18674
NsI18675
I18678
sI18676
NsI18678
I18680
sI18680
NsI18685
I18694
sI18687
I18696
sI18688
I18706
sI18693
I18694
sI18694
I18700
sI18696
I18698
sI18698
NsI18700
NsI18706
NsI18712
I18715
sI18714
I18741
sI18715
I18733
sI18720
I18723
sI18721
I18727
sI18723
I18725
sI18725
I18752
sI18727
I18754
sI18733
NsI18738
I18741
sI18739
NsI18741
I18743
sI18743
I18752
sI18747
I18749
sI18749
I18752
sI18752
I18914
sI18753
I18754
sI18754
NsI18759
NsI18769
I18850
sI18775
I18778
sI18777
I18778
sI18778
NsI18792
I18795
sI18793
I18811
sI18795
I18813
sI18797
I18824
sI18799
I18808
sI18801
NsI18806
NsI18808
NsI18811
NsI18813
NsI18819
I18837
sI18821
I18824
sI18824
I18842
sI18825
I18826
sI18826
NsI18830
NsI18834
NsI18837
NsI18842
NsI18847
I18850
sI18849
I18850
sI18850
I18868
sI18856
NsI18858
NsI18868
NsI18877
I18886
sI18883
I18886
sI18885
I18912
sI18886
NsI18903
I18912
sI18904
NsI18909
I18912
sI18910
NsI18912
I18914
sI18914
NsI18958
NsI18964
NsI18966
NsI18982
NsI18984
NsI18990
NsI18995
NsI18997
NsI19003
NsI19036
NsI19038
NsI19044
NsI19049
NsI19051
NsI19057
NsI19062
NsI19067
NsI19069
NsI19073
NsI19077
NsI19081
NsI19083
NsI19093
NsI19099
NsI19101
NsI19147
NsI19153
NsI19155
NsI19198
NsI19200
NsI19206
NsI19211
NsI19213
NsI19219
NsI19224
NsI19229
NsI19231
NsI19235
NsI19239
NsI19243
NsI19245
NsI19255
NsI19261
NsI19263
NsI19278
NsI19283
NsI19285
NsI19289
NsI19293
NsI19297
NsI19299
NsI19333
NsI19335
NsI19341
NsI19346
NsI19348
NsI19354
NsI19363
NsI19369
NsI19371
NsI19387
NsI19389
NsI19395
NsI19400
NsI19402
NsI19408
NsI19471
NsI19477
NsI19479
NsI19525
NsI19531
NsI19533
NsI19549
NsI19551
NsI19557
NsI19562
NsI19564
NsI19570
Ns.