(dp0
I0
I6
sI2
I83
sI5
I23
sI6
I87
sI7
I25
sI11
I17
sI15
I17
sI17
I98
sI18
I99
sI19
I25
sI21
I23
sI23
I104
sI25
I106
sI29
I1487
sI33
I519
sI35
I116
sI44
I1502
sI45
I4419
sI47
I128
sI50
I1508
sI51
I52
sI52
I4426
sI54
I135
sI55
I1513
sI57
I4431
sI59
I140
sI61
I142
sI63
I4437
sI65
I794
sI68
I554
sI69
I150
sI70
I1528
sI73
I154
sI75
I156
sI76
I1534
sI83
I13205
sI87
I4461
sI89
I98
sI98
I4472
sI99
I1557
sI101
I104
sI104
I1562
sI105
I106
sI106
I4480
sI116
I4490
sI128
I1586
sI132
I4506
sI134
NsI135
I621
sI137
I866
sI140
I626
sI141
I142
sI142
I628
sI146
I152
sI150
I4524
sI152
I881
sI153
I154
sI154
I1612
sI156
I642
sI158
I2345
sI160
I6721
sI162
I171
sI163
I13285
sI165
I4539
sI167
I6728
sI169
I2356
sI171
I1629
sI173
I6734
sI176
I4550
sI177
I2364
sI178
I1636
sI181
I910
sI183
I912
sI184
I4558
sI189
I675
sI191
I6752
sI194
I680
sI195
I196
sI196
I682
sI200
I1658
sI204
I690
sI206
I6767
sI207
I936
sI208
I214
sI210
I4584
sI212
I941
sI214
I943
sI217
I460
sI219
I220
sI220
I4594
sI225
I468
sI226
I1684
sI228
I4602
sI230
I473
sI232
I475
sI238
I481
sI245
I4619
sI249
I303
sI251
I260
sI260
I4634
sI261
I13383
sI263
I344
sI266
I13388
sI267
I348
sI268
I13390
sI278
I1736
sI290
I1748
sI294
I13416
sI296
NsI297
I4671
sI299
I1028
sI302
I320
sI303
I312
sI304
I1762
sI308
I314
sI312
I314
sI314
I6875
sI315
I1044
sI316
I322
sI318
I13440
sI320
I1049
sI322
I403
sI332
I4706
sI344
I13466
sI348
I1806
sI350
NsI380
I4754
sI384
I4758
sI386
I395
sI395
I4769
sI396
I13518
sI398
I401
sI401
I13523
sI402
I403
sI403
I1861
sI405
I459
sI407
I6968
sI410
I4784
sI411
I420
sI412
I466
sI416
I422
sI420
I474
sI422
I6983
sI423
I1152
sI424
I13546
sI426
I480
sI428
I1157
sI430
I1159
sI434
I1892
sI438
I440
sI440
I449
sI449
I1907
sI450
I13572
sI452
I455
sI455
I1913
sI456
I457
sI457
I13579
sI459
I7020
sI460
I13582
sI462
I4836
sI464
I7025
sI466
I2653
sI468
I1926
sI470
I7031
sI473
I4847
sI474
I7035
sI475
I1933
sI478
I1207
sI480
I1209
sI481
I4855
sI486
I567
sI487
I4861
sI489
I4863
sI491
I572
sI493
I574
sI495
I13617
sI497
I578
sI500
I13622
sI501
I582
sI502
I13624
sI505
I7066
sI507
I588
sI508
I562
sI513
I4887
sI515
I7076
sI518
I1976
sI519
I520
sI520
I538
sI524
I530
sI528
I13650
sI530
I611
sI531
I7092
sI532
I538
sI534
I536
sI536
I7097
sI538
I1267
sI541
I622
sI543
I624
sI544
I2002
sI549
I630
sI550
I4924
sI552
I13674
sI554
I635
sI556
I637
sI562
I643
sI567
I621
sI569
I578
sI572
I626
sI573
I582
sI574
I4948
sI578
I13700
sI582
I636
sI584
I1313
sI585
I7146
sI586
I592
sI588
I642
sI590
I2777
sI592
I7153
sI596
I2054
sI600
I4974
sI602
I611
sI611
I4985
sI612
I2070
sI614
I617
sI617
I2075
sI618
I619
sI619
I4993
sI621
I622
sI622
I2080
sI624
I2082
sI626
I2813
sI628
I7189
sI630
I13752
sI632
I1361
sI635
I13757
sI636
I1365
sI637
I5011
sI640
I7201
sI642
I2829
sI643
I2101
sI649
I676
sI651
I660
sI652
I5026
sI657
I658
sI658
I13780
sI660
I2118
sI662
I689
sI664
I691
sI670
I697
sI675
I1404
sI676
I13798
sI678
I5052
sI680
I7241
sI682
I1411
sI684
I2142
sI686
I7247
sI689
I2147
sI690
I2877
sI691
I13813
sI694
I1423
sI696
I1425
sI697
I5071
sI706
NsI712
NsI714
NsI731
I785
sI735
I1221
sI737
I746
sI746
I800
sI747
I801
sI749
I7310
sI752
I806
sI753
I754
sI754
I1240
sI764
I1250
sI776
I938
sI780
I5154
sI782
NsI783
I785
sI785
I866
sI788
I806
sI789
I870
sI790
I808
sI794
I800
sI798
I800
sI800
I881
sI801
I7362
sI802
I808
sI804
I806
sI806
I887
sI808
I7369
sI818
I872
sI830
I884
sI834
I5208
sI836
NsI866
I1352
sI870
I1356
sI872
I881
sI881
NsI882
I1368
sI884
I887
sI887
I1373
sI888
I889
sI889
I5263
sI891
I909
sI893
I7454
sI896
I914
sI897
I3084
sI898
I916
sI902
I908
sI906
I908
sI908
I7469
sI909
I7470
sI910
I916
sI912
I5286
sI914
I7475
sI916
I943
sI920
I1406
sI924
I1410
sI926
I3113
sI935
I1421
sI936
I1422
sI938
I7499
sI941
I1427
sI942
I943
sI943
NsI945
I1188
sI946
I964
sI948
I966
sI950
I7511
sI952
I3139
sI954
I956
sI956
I7517
sI959
I1445
sI960
I7521
sI961
I1447
sI964
I1207
sI966
I1209
sI967
I5341
sI980
I1034
sI992
I1046
sI996
I14118
sI998
NsI1028
I5402
sI1032
I1034
sI1034
I1043
sI1043
I5417
sI1044
I1206
sI1046
I1049
sI1049
I5423
sI1050
I1051
sI1051
I14173
sI1115
I5489
sI1127
I5501
sI1131
I5505
sI1133
NsI1136
I1190
sI1140
I1194
sI1142
I7703
sI1151
I1205
sI1152
I1206
sI1154
I7715
sI1157
I1211
sI1158
I1159
sI1159
I14281
sI1169
I1187
sI1181
I1187
sI1185
I14307
sI1187
NsI1188
I1206
sI1190
I7751
sI1193
I1211
sI1194
I3381
sI1195
I1213
sI1199
I1205
sI1203
I1205
sI1205
I7766
sI1206
I3393
sI1207
I14329
sI1209
I5583
sI1211
I7772
sI1213
I3400
sI1215
I1221
sI1217
I1298
sI1220
I1274
sI1221
I1302
sI1222
I1240
sI1226
I1232
sI1230
I1232
sI1232
I1313
sI1233
I7794
sI1234
I1240
sI1236
I1238
sI1238
I7799
sI1240
I1267
sI1244
I1406
sI1248
I1410
sI1250
I1259
sI1259
I5633
sI1260
I1422
sI1262
I7823
sI1265
I1427
sI1266
I1267
sI1267
NsI1269
I1350
sI1270
I1276
sI1272
I1274
sI1274
I1355
sI1276
I1357
sI1278
I1280
sI1280
I1361
sI1283
I5657
sI1284
I1365
sI1285
I5659
sI1288
I7849
sI1290
I1371
sI1291
I1453
sI1298
I1352
sI1302
I5676
sI1304
I1313
sI1313
NsI1314
I1368
sI1316
I1319
sI1319
I1373
sI1320
I1321
sI1321
I5695
sI1331
I5705
sI1343
I1349
sI1347
I5721
sI1349
NsI1350
I1352
sI1352
I1361
sI1355
I14477
sI1356
I1365
sI1357
I5731
sI1361
NsI1365
NsI1368
I7929
sI1369
I1375
sI1371
I1373
sI1373
I3560
sI1375
I7936
sI1377
I1404
sI1378
I5752
sI1380
I5754
sI1382
I7943
sI1384
I1411
sI1386
I14508
sI1388
I3575
sI1391
I1445
sI1392
I1393
sI1393
I14515
sI1396
I1423
sI1398
I1425
sI1399
I5773
sI1404
I1422
sI1406
I7967
sI1409
I1427
sI1410
I1411
sI1411
NsI1415
I1421
sI1419
I14541
sI1421
I3608
sI1422
I1423
sI1423
NsI1425
I5799
sI1427
I7988
sI1432
NsI1434
NsI1440
NsI1445
NsI1447
NsI1453
NsI1458
I1539
sI1459
I1513
sI1461
I1947
sI1463
I1544
sI1465
I1546
sI1467
I1953
sI1469
I8030
sI1472
I1634
sI1473
I8034
sI1474
I1528
sI1477
I1558
sI1479
I1560
sI1480
I1534
sI1485
I1487
sI1487
I1568
sI1490
I1508
sI1491
I1572
sI1492
I1510
sI1496
I1502
sI1500
I1502
sI1502
I1583
sI1503
I1584
sI1504
I1510
sI1506
I1508
sI1508
I1589
sI1510
I1591
sI1513
I1594
sI1515
I1516
sI1516
I2002
sI1521
I1522
sI1522
I5896
sI1524
I2010
sI1526
NsI1528
I8089
sI1534
I1615
sI1539
I1557
sI1541
I1568
sI1544
I1562
sI1545
I1546
sI1546
I1564
sI1550
I1556
sI1554
I5928
sI1556
I1583
sI1557
I1558
sI1558
I1564
sI1560
I1562
sI1562
I3749
sI1564
I8125
sI1568
I1586
sI1572
I5946
sI1574
I1817
sI1583
I5957
sI1584
I1586
sI1586
I1829
sI1589
I14711
sI1590
I1833
sI1591
I5965
sI1593
I1594
sI1594
I2080
sI1596
I2082
sI1598
NsI1600
I8161
sI1602
I2088
sI1604
NsI1608
I1609
sI1609
I2095
sI1612
I8173
sI1614
I3801
sI1615
I2101
sI1621
I1630
sI1623
I1632
sI1624
I1678
sI1629
I1630
sI1630
I1684
sI1632
I6006
sI1634
I8195
sI1636
I3823
sI1642
NsI1647
I1656
sI1648
I2134
sI1650
I2136
sI1652
I1661
sI1654
I1663
sI1656
I2142
sI1658
I8219
sI1661
I2147
sI1662
I3849
sI1663
I2149
sI1666
NsI1668
NsI1678
I1687
sI1684
I1687
sI1686
I1687
sI1687
NsI1701
I1707
sI1703
I1730
sI1706
I1724
sI1707
I1788
sI1708
I1762
sI1712
I1718
sI1716
I1718
sI1718
I8279
sI1719
I1800
sI1720
I1726
sI1722
I14844
sI1724
I1805
sI1726
I1807
sI1730
I6104
sI1734
I1736
sI1736
I1817
sI1745
I6119
sI1746
I1748
sI1748
I1829
sI1751
I6125
sI1752
I1833
sI1753
I6127
sI1755
I1756
sI1756
I1762
sI1758
I1920
sI1760
NsI1762
I8323
sI1764
I1926
sI1766
NsI1770
I8331
sI1771
I1933
sI1774
I1855
sI1776
I1857
sI1777
I1939
sI1784
I1802
sI1788
I6162
sI1790
I1817
sI1799
I6173
sI1800
I1806
sI1802
I1829
sI1805
I14927
sI1806
I1833
sI1807
I6181
sI1817
NsI1829
NsI1833
NsI1836
I1842
sI1838
NsI1842
I1843
sI1843
I1861
sI1851
I6225
sI1853
NsI1854
I1855
sI1855
I1861
sI1857
I14979
sI1859
NsI1861
I8422
sI1863
I1872
sI1864
I1918
sI1866
I6240
sI1868
I1877
sI1870
I1879
sI1872
I1926
sI1874
I8435
sI1877
I6251
sI1878
I8439
sI1879
I1933
sI1882
NsI1884
NsI1890
I1892
sI1892
I1901
sI1895
I1913
sI1896
I1905
sI1897
I1915
sI1901
I1907
sI1905
I1907
sI1907
I8468
sI1908
NsI1913
NsI1915
NsI1918
I1927
sI1920
I1929
sI1921
I6295
sI1926
I8487
sI1927
I6301
sI1929
I6303
sI1931
NsI1933
I8494
sI1939
NsI1945
I2026
sI1947
I2028
sI1948
I2002
sI1953
I1954
sI1954
I2008
sI1956
I15078
sI1958
I1985
sI1960
I2041
sI1966
I2047
sI1971
I1980
sI1972
I1978
sI1974
I1976
sI1976
I2057
sI1978
I2059
sI1980
I2142
sI1982
I8543
sI1985
I2147
sI1986
I4173
sI1987
I2149
sI1990
I2071
sI1992
I2073
sI1993
I2155
sI2002
I2011
sI2008
I2011
sI2010
I2011
sI2011
NsI2025
I8586
sI2026
I2080
sI2028
I2082
sI2030
I4217
sI2032
I8593
sI2034
I2088
sI2036
I2063
sI2039
I15161
sI2040
I2041
sI2041
I2095
sI2044
I8605
sI2046
I4233
sI2047
I2101
sI2052
I2054
sI2054
I2057
sI2057
I2075
sI2058
I8619
sI2059
I2077
sI2063
I2069
sI2067
I2069
sI2069
I4256
sI2070
I8631
sI2071
I2077
sI2073
I2075
sI2075
I4262
sI2077
I8638
sI2080
I2083
sI2082
I2083
sI2083
I2101
sI2088
I2089
sI2089
I6463
sI2091
I15213
sI2093
NsI2095
I8656
sI2101
I4288
sI2110
I2119
sI2116
I2119
sI2118
I2119
sI2119
NsI2134
I2143
sI2136
I2145
sI2137
I6511
sI2142
I2143
sI2143
I15265
sI2145
I6519
sI2147
I8708
sI2149
I4336
sI2155
NsI2189
I2675
sI2193
I2247
sI2195
I2204
sI2204
I2690
sI2205
I2259
sI2207
I2210
sI2210
I2264
sI2211
I2212
sI2212
I2266
sI2222
I2708
sI2234
I3692
sI2238
I2400
sI2240
NsI2241
I2247
sI2243
I2972
sI2246
I2264
sI2247
I2976
sI2248
I2266
sI2252
I2258
sI2256
I2258
sI2258
I2987
sI2259
I2340
sI2260
I2266
sI2262
I2264
sI2264
I2345
sI2266
I8827
sI2276
I2762
sI2288
I3746
sI2292
I2346
sI2294
NsI2324
I2810
sI2328
I2814
sI2330
I3059
sI2339
I2825
sI2340
I2826
sI2342
I2345
sI2345
NsI2346
I2347
sI2347
I3805
sI2349
I2355
sI2351
I8912
sI2354
I2372
sI2355
I8916
sI2356
I15478
sI2360
I2366
sI2364
I3822
sI2366
I8927
sI2367
I3096
sI2368
I2374
sI2370
I2372
sI2372
I3101
sI2374
I3103
sI2378
I2864
sI2382
I2868
sI2384
I8945
sI2393
I2879
sI2394
I2880
sI2396
I3125
sI2399
I2885
sI2400
I3129
sI2401
I2887
sI2403
I3132
sI2404
I2410
sI2406
I2408
sI2408
I3137
sI2410
I2653
sI2412
I2418
sI2414
I8975
sI2417
I2903
sI2418
I2661
sI2419
I3877
sI2422
I3151
sI2424
I3153
sI2425
I2911
sI2438
I2600
sI2450
I15572
sI2454
I2508
sI2456
NsI2486
I2648
sI2490
I2652
sI2492
I9053
sI2501
I2663
sI2502
I15624
sI2504
I2507
sI2507
I15629
sI2508
I2509
sI2509
I15631
sI2573
I2591
sI2585
I15707
sI2589
I4047
sI2591
NsI2594
I2648
sI2598
I2652
sI2600
I9161
sI2609
I2663
sI2610
I2664
sI2612
I3341
sI2615
I2669
sI2616
I3345
sI2617
I2671
sI2627
I2645
sI2639
I2645
sI2643
I2645
sI2645
NsI2646
I2652
sI2648
I9209
sI2651
I2669
sI2652
I9213
sI2653
I15775
sI2657
I2663
sI2661
I4119
sI2663
I9224
sI2664
I3393
sI2665
I2671
sI2667
I2669
sI2669
I3398
sI2671
I3400
sI2673
I2679
sI2675
I2756
sI2678
I2696
sI2679
I9240
sI2680
I2698
sI2684
I2690
sI2688
I2690
sI2690
I3419
sI2691
I9252
sI2692
I2698
sI2694
I2696
sI2696
I2777
sI2698
I9259
sI2702
I4160
sI2706
I2868
sI2708
I2717
sI2717
I4175
sI2718
I2880
sI2720
I2723
sI2723
I4181
sI2724
I3453
sI2725
I2887
sI2727
I2808
sI2728
I4186
sI2730
I4188
sI2732
I2813
sI2734
I2815
sI2736
I15858
sI2738
I2819
sI2741
I15863
sI2742
I2823
sI2743
I4201
sI2746
I2827
sI2748
I2829
sI2749
I4207
sI2756
I2810
sI2760
I2814
sI2762
I2771
sI2771
I15893
sI2772
I2826
sI2774
I2777
sI2777
NsI2778
I9339
sI2779
I2833
sI2789
I4247
sI2801
I4259
sI2805
I2807
sI2807
NsI2808
I2810
sI2810
I2813
sI2813
NsI2814
I3543
sI2815
I4273
sI2819
I15941
sI2823
I15945
sI2825
I3554
sI2826
I2829
sI2827
I4285
sI2829
NsI2833
I9394
sI2835
I9396
sI2836
I2842
sI2838
I2840
sI2840
I3569
sI2842
I2869
sI2844
I2850
sI2846
I9407
sI2849
I2903
sI2850
I2877
sI2851
I4309
sI2854
I3583
sI2856
I3585
sI2857
I2911
sI2862
I2868
sI2864
I9425
sI2867
I2885
sI2868
I3597
sI2869
I15991
sI2873
I2879
sI2877
I4335
sI2879
I9440
sI2880
I3609
sI2881
I2887
sI2883
I2885
sI2885
I3614
sI2887
I3616
sI2890
NsI2892
NsI2898
NsI2903
NsI2905
NsI2911
NsI2924
I2978
sI2936
I2990
sI2940
I3102
sI2942
NsI2972
I3458
sI2976
I2978
sI2978
I9539
sI2987
I3473
sI2988
I2990
sI2990
I9551
sI2993
I3479
sI2994
I9555
sI2995
I3157
sI3059
I3545
sI3071
I3557
sI3075
I3561
sI3077
NsI3080
I3086
sI3084
I3102
sI3086
I9647
sI3095
I3149
sI3096
I3102
sI3098
I9659
sI3101
I3155
sI3102
I9663
sI3103
I3589
sI3113
I3599
sI3125
I3611
sI3129
I3615
sI3131
NsI3132
I3138
sI3134
I9695
sI3137
I3155
sI3138
I9699
sI3139
I3157
sI3143
I3149
sI3147
I3149
sI3149
I9710
sI3150
I9711
sI3151
I3157
sI3153
I3155
sI3155
I9716
sI3157
I9718
sI3221
I3383
sI3233
I3395
sI3237
I3399
sI3239
NsI3329
I3383
sI3341
I3395
sI3345
I3399
sI3347
NsI3377
I3383
sI3381
I3399
sI3383
I9944
sI3392
I16514
sI3393
I3399
sI3395
I9956
sI3398
I16520
sI3399
I9960
sI3400
I16522
sI3404
I3458
sI3408
I3410
sI3410
I9971
sI3419
I3473
sI3420
I3422
sI3422
I9983
sI3425
I3479
sI3426
I9987
sI3427
I3589
sI3437
I3599
sI3449
I3611
sI3453
I3615
sI3455
NsI3456
I3458
sI3458
I3539
sI3461
I3479
sI3462
I10023
sI3463
I3481
sI3467
I3473
sI3471
I3473
sI3473
I3554
sI3474
I10035
sI3475
I3481
sI3477
I3479
sI3479
I3560
sI3481
I10042
sI3491
I3545
sI3503
I3557
sI3507
I3561
sI3509
NsI3539
I3545
sI3543
I3545
sI3545
I3554
sI3554
NsI3555
I3557
sI3557
I3560
sI3560
NsI3561
I10122
sI3562
I16684
sI3564
I3570
sI3566
I10127
sI3569
I3587
sI3570
I10131
sI3571
I3589
sI3575
I3581
sI3579
I3581
sI3581
I10142
sI3582
I10143
sI3583
I3589
sI3585
I3587
sI3587
I10148
sI3589
I3616
sI3593
I3599
sI3597
I3615
sI3599
I10160
sI3608
I16730
sI3609
I3615
sI3611
I10172
sI3614
I16736
sI3615
I3616
sI3616
NsI3618
NsI3623
NsI3625
NsI3629
NsI3633
NsI3637
NsI3639
NsI3645
I16767
sI3647
I3728
sI3650
I3668
sI3651
I3660
sI3652
I3706
sI3656
I3662
sI3660
I3822
sI3662
I3689
sI3663
I3744
sI3664
I3718
sI3666
I3668
sI3668
I3749
sI3670
I3751
sI3674
I16796
sI3678
I16800
sI3680
I3689
sI3689
I4175
sI3690
I16812
sI3692
I3773
sI3695
I4181
sI3696
I3777
sI3697
I3859
sI3699
I3780
sI3700
I16822
sI3702
I16824
sI3704
NsI3706
I3787
sI3708
I16830
sI3710
NsI3714
I3715
sI3715
I16837
sI3718
I3799
sI3720
I3801
sI3721
I4207
sI3728
I16850
sI3732
I16854
sI3734
I3761
sI3743
I4229
sI3744
I3798
sI3746
I3749
sI3749
NsI3750
I3751
sI3751
I3805
sI3761
I16883
sI3773
I16895
sI3777
I16899
sI3779
NsI3780
I3798
sI3782
NsI3786
I3787
sI3787
I3805
sI3795
I4281
sI3797
NsI3798
I3801
sI3799
I4285
sI3801
NsI3805
I10366
sI3807
I3816
sI3808
I16930
sI3810
I16932
sI3812
I3821
sI3814
I3823
sI3816
I3822
sI3818
I10379
sI3821
I3875
sI3822
I4065
sI3823
I16945
sI3826
NsI3828
NsI3834
I3840
sI3836
I3845
sI3839
I3857
sI3840
I3849
sI3841
I4327
sI3845
I3851
sI3849
I4335
sI3851
I10412
sI3852
NsI3857
NsI3859
NsI3862
I3871
sI3864
I3865
sI3865
I16987
sI3870
I3871
sI3871
I16993
sI3873
I16995
sI3875
NsI3877
I4120
sI3883
NsI3890
I17012
sI3894
I17016
sI3896
I3905
sI3905
I4067
sI3906
I17028
sI3908
I3989
sI3911
I17033
sI3912
I3993
sI3913
I3967
sI3923
I17045
sI3935
I17057
sI3939
I17061
sI3941
NsI3942
I3948
sI3944
NsI3948
I3949
sI3949
I17071
sI3957
I4119
sI3959
NsI3960
I4041
sI3961
I3967
sI3963
I17085
sI3965
NsI3967
I4048
sI3977
I17099
sI3989
I17111
sI3993
I17115
sI3995
NsI4029
I4047
sI4031
NsI4041
I17163
sI4043
NsI4047
I4048
sI4048
I17170
sI4050
I4056
sI4052
I4061
sI4055
I4073
sI4056
I4065
sI4057
I4111
sI4061
I4067
sI4065
I4119
sI4067
I10628
sI4068
NsI4073
NsI4075
NsI4079
I4085
sI4083
I4085
sI4085
I4094
sI4094
I17216
sI4097
NsI4101
NsI4104
I4113
sI4105
I4111
sI4107
I4109
sI4109
NsI4111
I4120
sI4113
I4119
sI4115
NsI4119
I10680
sI4120
I17242
sI4123
NsI4125
NsI4131
I4212
sI4132
I4186
sI4134
I17256
sI4136
I4217
sI4138
I4219
sI4140
I17262
sI4142
I4169
sI4145
I17267
sI4146
I4173
sI4147
I17269
sI4150
I4231
sI4152
I4233
sI4153
I4207
sI4158
I4160
sI4160
I4241
sI4163
I4181
sI4164
I4173
sI4165
I4327
sI4169
I4175
sI4173
I4175
sI4175
I4256
sI4176
I4179
sI4177
I4183
sI4179
I4181
sI4181
I4262
sI4183
I4264
sI4186
I4267
sI4188
I4269
sI4189
I17311
sI4194
I4195
sI4195
I17317
sI4197
I17319
sI4199
NsI4201
I4282
sI4207
I4288
sI4212
I4266
sI4214
I4217
sI4217
NsI4218
I4219
sI4219
I4273
sI4223
I17345
sI4227
I17349
sI4229
I4256
sI4230
I4233
sI4231
I4285
sI4233
NsI4237
I10798
sI4241
I17363
sI4245
I4247
sI4247
I4256
sI4256
I17378
sI4257
I4259
sI4259
I4262
sI4262
NsI4263
I4264
sI4264
I17386
sI4266
I4269
sI4267
I4285
sI4269
NsI4273
I10834
sI4275
I17397
sI4277
NsI4281
I4282
sI4282
I17404
sI4285
I4288
sI4288
NsI4294
I4303
sI4296
I4297
sI4297
I17419
sI4302
I4329
sI4303
I17425
sI4305
I17427
sI4307
I4334
sI4309
I4336
sI4315
NsI4320
I4329
sI4321
I4327
sI4323
I4325
sI4325
I4334
sI4327
I4336
sI4329
I4335
sI4331
I10892
sI4334
I17456
sI4335
I4336
sI4336
I17458
sI4339
NsI4341
NsI4351
NsI4357
NsI4359
NsI4374
I4455
sI4375
I4861
sI4377
I4863
sI4379
I10940
sI4381
I4462
sI4383
I4437
sI4385
I4466
sI4388
I4550
sI4389
I4470
sI4390
I4444
sI4393
I4474
sI4395
I5124
sI4396
I4450
sI4401
I4887
sI4403
I4484
sI4406
I4424
sI4407
I4488
sI4408
I4426
sI4412
I4418
sI4416
I4418
sI4418
I4499
sI4419
I4500
sI4420
I4426
sI4422
I4424
sI4424
I4505
sI4426
I4507
sI4429
I4510
sI4431
I4432
sI4432
I5890
sI4437
I4518
sI4438
I4924
sI4440
I17562
sI4442
I4523
sI4444
I4525
sI4450
I4531
sI4455
I4461
sI4457
I5186
sI4460
I4478
sI4461
I4470
sI4462
I4480
sI4466
I4472
sI4470
I4472
sI4472
I4715
sI4473
I11034
sI4474
I4480
sI4476
I4478
sI4478
I4505
sI4480
I4507
sI4484
I4490
sI4488
I4506
sI4490
I4733
sI4499
I17621
sI4500
I4506
sI4502
I4745
sI4505
I5963
sI4506
I4507
sI4507
I4993
sI4509
I5238
sI4510
I4996
sI4512
I4998
sI4514
I5243
sI4516
I11077
sI4518
I4524
sI4520
I5249
sI4523
I5009
sI4524
I5253
sI4525
I5011
sI4528
I11089
sI4530
I11091
sI4531
I5017
sI4537
I4540
sI4539
I4548
sI4540
I17662
sI4545
I4548
sI4546
I5032
sI4548
I6006
sI4550
I11111
sI4552
NsI4558
I5287
sI4563
I5292
sI4564
I5050
sI4566
I5052
sI4568
I11129
sI4570
NsI4572
I5058
sI4574
I11135
sI4577
I5063
sI4578
NsI4582
I5311
sI4584
I5313
sI4585
I5071
sI4594
I4603
sI4600
I4603
sI4602
I4603
sI4603
NsI4617
I4671
sI4619
I4700
sI4622
I4640
sI4623
I4704
sI4624
I4642
sI4628
I4634
sI4632
I4634
sI4634
I4715
sI4635
I4716
sI4636
I4642
sI4638
I4640
sI4640
I4721
sI4642
I4723
sI4646
I6104
sI4650
I4668
sI4652
I4733
sI4661
I6119
sI4662
I17784
sI4664
I4745
sI4667
I6125
sI4668
I4749
sI4669
I17791
sI4671
I11232
sI4672
I4690
sI4674
I4836
sI4676
I5405
sI4678
I4759
sI4680
I4682
sI4682
I11243
sI4685
I4847
sI4686
I11247
sI4687
I6145
sI4690
I4771
sI4692
I5421
sI4693
I4855
sI4700
I4706
sI4704
I4706
sI4706
I4715
sI4715
I4769
sI4716
I4722
sI4718
I4745
sI4721
I17843
sI4722
I4749
sI4723
I6181
sI4733
NsI4745
NsI4749
NsI4752
I4758
sI4754
I5483
sI4757
I4775
sI4758
I4767
sI4759
I4777
sI4763
I4769
sI4767
I4769
sI4769
I5498
sI4770
I4771
sI4771
I4777
sI4773
I4775
sI4775
I5504
sI4777
I11338
sI4779
I11340
sI4780
I4834
sI4782
I4836
sI4784
I11345
sI4786
NsI4788
I4842
sI4790
I11351
sI4793
I4847
sI4794
NsI4798
I5527
sI4800
I5529
sI4801
I4855
sI4806
I4808
sI4808
I4817
sI4811
I4829
sI4812
NsI4817
I6275
sI4823
NsI4824
I4825
sI4825
I17947
sI4827
I4829
sI4829
I5558
sI4831
NsI4834
I4837
sI4836
I4845
sI4837
I17959
sI4842
I11403
sI4843
I6301
sI4845
I6303
sI4847
I11408
sI4849
NsI4855
I5584
sI4861
I4942
sI4863
I4872
sI4864
I6322
sI4869
I4950
sI4870
I4924
sI4872
I17994
sI4874
I4955
sI4876
I4957
sI4882
I4963
sI4887
I5616
sI4888
I4894
sI4890
I5052
sI4892
I11453
sI4894
I5623
sI4896
I4898
sI4898
I4979
sI4901
I5063
sI4902
I4983
sI4903
I18025
sI4906
I5635
sI4908
I11469
sI4909
I5071
sI4918
I4927
sI4924
I4927
sI4926
I4927
sI4927
NsI4941
I11502
sI4942
I4948
sI4944
I4998
sI4946
I5675
sI4948
I5677
sI4950
I5004
sI4952
I5681
sI4955
I5009
sI4956
I5685
sI4957
I5011
sI4960
I11521
sI4962
I11523
sI4963
I5017
sI4968
I4974
sI4970
I4979
sI4973
I4991
sI4974
I4975
sI4975
I4993
sI4979
I4985
sI4983
I4985
sI4985
I5714
sI4986
I11547
sI4987
I4993
sI4989
I4991
sI4991
I11552
sI4993
I5722
sI4996
I5005
sI4998
I4999
sI4999
I6457
sI5004
I5005
sI5005
I5011
sI5007
I18129
sI5009
I5738
sI5011
I5740
sI5017
I11578
sI5026
I5035
sI5032
I5035
sI5034
I5035
sI5035
NsI5050
I5779
sI5052
I5053
sI5053
I18175
sI5058
I5061
sI5059
I18181
sI5061
I6519
sI5063
I11624
sI5065
NsI5071
I5800
sI5103
I18225
sI5105
I5186
sI5108
I5162
sI5109
I5190
sI5110
I5596
sI5114
I5168
sI5118
I5120
sI5120
I5201
sI5121
I5122
sI5122
I5128
sI5124
I5286
sI5126
I11687
sI5128
I5155
sI5132
I18254
sI5136
I18258
sI5138
I5219
sI5147
I5633
sI5148
I18270
sI5150
I5153
sI5153
I5315
sI5154
I5155
sI5155
NsI5157
I5238
sI5158
I18280
sI5160
I18282
sI5162
I5243
sI5164
I5245
sI5166
I5168
sI5168
I5249
sI5171
I5657
sI5172
I5253
sI5173
I5659
sI5176
I5257
sI5178
I5421
sI5179
I5341
sI5186
I18308
sI5190
I18312
sI5192
I5201
sI5201
NsI5202
I5208
sI5204
I5207
sI5207
I5261
sI5208
I5209
sI5209
I5695
sI5219
I18341
sI5231
I18353
sI5235
I18357
sI5237
NsI5238
I5244
sI5240
I5249
sI5243
I5729
sI5244
I5253
sI5245
I5731
sI5249
NsI5253
NsI5256
I5257
sI5257
I5263
sI5259
I5261
sI5261
I5504
sI5263
I11824
sI5265
I5266
sI5266
I18388
sI5268
I5286
sI5270
I11831
sI5272
NsI5274
I18396
sI5276
I5519
sI5279
I5333
sI5280
NsI5284
I5311
sI5286
I5287
sI5287
I18409
sI5292
I5310
sI5294
I5297
sI5297
I5315
sI5298
NsI5303
I5309
sI5309
NsI5310
I5311
sI5311
NsI5313
I5799
sI5315
I11876
sI5320
I5323
sI5322
I5565
sI5323
I18445
sI5328
I5329
sI5329
I18451
sI5331
I18453
sI5333
I5576
sI5335
NsI5341
I5584
sI5348
I5402
sI5352
I18474
sI5354
I5363
sI5363
I5417
sI5364
I18486
sI5366
I5369
sI5369
I5423
sI5370
I5371
sI5371
I18493
sI5381
I18503
sI5393
I18515
sI5397
I18519
sI5399
NsI5400
I5402
sI5402
I5411
sI5405
I5423
sI5406
I5487
sI5407
I5425
sI5411
I5417
sI5415
I5417
sI5417
I5498
sI5418
I5421
sI5419
I18541
sI5421
I5423
sI5423
I5504
sI5425
I5506
sI5435
I18557
sI5447
I18569
sI5451
I18573
sI5453
NsI5483
I18605
sI5487
I18609
sI5489
I5498
sI5498
NsI5499
I18621
sI5501
I5504
sI5504
I18626
sI5505
I5506
sI5506
I18628
sI5508
I5526
sI5510
I12071
sI5513
I5531
sI5514
NsI5519
I5573
sI5525
NsI5526
I5529
sI5527
I18649
sI5529
I5583
sI5531
I12092
sI5533
NsI5537
I5543
sI5543
NsI5553
I18675
sI5555
I5558
sI5558
I18680
sI5559
NsI5562
I5565
sI5563
I5581
sI5565
I5583
sI5567
I12128
sI5569
NsI5571
I5573
sI5573
I12134
sI5576
I18698
sI5577
NsI5581
I5584
sI5583
I5584
sI5584
I18706
sI5589
I5670
sI5590
I5596
sI5592
I5594
sI5594
I5675
sI5596
I5623
sI5598
I18720
sI5600
I5681
sI5603
I5657
sI5604
I5685
sI5605
I18727
sI5608
I5635
sI5610
I12171
sI5611
I5773
sI5616
I18738
sI5618
I5627
sI5621
I5639
sI5622
I5623
sI5623
NsI5627
I5633
sI5631
I18753
sI5633
I5714
sI5634
I5635
sI5635
NsI5637
I5799
sI5639
I12200
sI5644
I5725
sI5646
I5727
sI5647
I18769
sI5652
I5733
sI5653
I18775
sI5655
I18777
sI5657
I5738
sI5659
I5740
sI5665
I5746
sI5670
I5676
sI5672
I5681
sI5675
I5729
sI5676
I5677
sI5677
I5695
sI5681
NsI5685
NsI5688
I12249
sI5689
I5695
sI5691
I5693
sI5693
I12254
sI5695
I5722
sI5699
I5705
sI5703
I18825
sI5705
I5714
sI5714
NsI5715
I5721
sI5717
I5720
sI5720
I18842
sI5721
I5722
sI5722
NsI5724
I5733
sI5725
I5731
sI5727
I5729
sI5729
I5738
sI5731
I5740
sI5733
NsI5738
NsI5740
NsI5743
I12304
sI5745
I12306
sI5746
I18868
sI5752
I5779
sI5754
I5781
sI5755
I18877
sI5760
I5761
sI5761
I18883
sI5763
I18885
sI5765
I5792
sI5767
NsI5773
I5800
sI5778
I5779
sI5779
NsI5781
I5799
sI5783
I12344
sI5787
I18909
sI5789
I5792
sI5792
I18914
sI5793
NsI5799
I5800
sI5800
NsI5809
NsI5815
NsI5817
NsI5833
I12394
sI5835
I12396
sI5836
I5890
sI5841
I12402
sI5842
I5896
sI5844
I6006
sI5846
I12407
sI5848
I12409
sI5854
I5935
sI5859
I5940
sI5860
I5866
sI5862
I5864
sI5864
I12425
sI5866
I5947
sI5868
I5870
sI5870
I12431
sI5873
I6035
sI5874
I5955
sI5875
I6037
sI5878
I5959
sI5880
I5961
sI5881
I6043
sI5890
I5899
sI5896
I5899
sI5898
I5899
sI5899
NsI5913
I12474
sI5914
I5920
sI5916
I5934
sI5918
I5945
sI5920
I12481
sI5922
I5928
sI5924
I5951
sI5927
I5981
sI5928
I12489
sI5929
I5983
sI5932
I12493
sI5934
I12495
sI5935
I5989
sI5940
I5946
sI5942
I6185
sI5945
I5963
sI5946
I6189
sI5947
I5965
sI5951
I5957
sI5955
I5957
sI5957
I6200
sI5958
I6201
sI5959
I5965
sI5961
I5963
sI5963
I6206
sI5965
I6208
sI5968
I12529
sI5970
I5971
sI5971
I6457
sI5976
I5977
sI5977
I6463
sI5979
I6465
sI5981
NsI5983
I12544
sI5989
I12550
sI5998
I6007
sI6004
I6007
sI6006
I6007
sI6007
NsI6022
I6025
sI6024
I6033
sI6025
I6511
sI6030
I6033
sI6031
I6517
sI6033
I6519
sI6035
I12596
sI6037
NsI6043
NsI6075
I12636
sI6076
I6130
sI6078
I6240
sI6080
I6089
sI6082
I6163
sI6084
I6086
sI6086
I12647
sI6089
I6251
sI6090
I12651
sI6091
I6145
sI6094
I6175
sI6096
I6123
sI6097
I6151
sI6102
I6104
sI6104
I6185
sI6107
I6125
sI6108
I6189
sI6109
I6127
sI6113
I6119
sI6117
I6119
sI6119
I6200
sI6120
I6201
sI6121
I6127
sI6123
I6125
sI6125
I6206
sI6127
I6208
sI6130
I12691
sI6132
I6141
sI6133
I6295
sI6138
I12699
sI6139
I6301
sI6141
I6303
sI6143
NsI6145
I12706
sI6151
I6232
sI6156
I6162
sI6158
I6185
sI6161
I6179
sI6162
I6189
sI6163
I6181
sI6167
I6173
sI6171
I6173
sI6173
I6200
sI6174
I6201
sI6175
I6181
sI6177
I6179
sI6179
I6206
sI6181
I6208
sI6185
NsI6189
NsI6200
NsI6201
NsI6206
NsI6208
NsI6210
I12771
sI6211
I6217
sI6213
I6215
sI6215
NsI6217
I12778
sI6219
I6225
sI6221
NsI6225
I12786
sI6226
I19348
sI6229
I12790
sI6231
I6232
sI6232
I19354
sI6238
I6247
sI6240
I6249
sI6241
I6295
sI6246
I12807
sI6247
I6301
sI6249
I6303
sI6251
I12812
sI6253
NsI6259
NsI6264
I6273
sI6265
I6271
sI6267
I6269
sI6269
I6278
sI6271
NsI6273
I6275
sI6275
I12836
sI6278
I19400
sI6279
NsI6283
NsI6285
NsI6295
I6304
sI6301
I6304
sI6303
I6304
sI6304
NsI6322
I6331
sI6328
I6331
sI6330
I6331
sI6331
NsI6346
I6427
sI6348
I12909
sI6349
I6511
sI6354
I12915
sI6355
I6517
sI6357
I6519
sI6359
I12920
sI6361
I6442
sI6367
I6448
sI6400
I12961
sI6402
I12963
sI6403
I6457
sI6408
I12969
sI6409
I6463
sI6411
I6465
sI6413
I6440
sI6415
I12976
sI6421
I12982
sI6426
I12987
sI6427
I6433
sI6429
I6431
sI6431
I12992
sI6433
I12994
sI6435
I6437
sI6437
I12998
sI6440
I19562
sI6441
I13002
sI6442
I19564
sI6445
I13006
sI6447
I13008
sI6448
I19570
sI6457
I6466
sI6463
I6466
sI6465
I6466
sI6466
NsI6511
I6520
sI6517
I6520
sI6519
I6520
sI6520
NsI6563
I10937
sI6567
I6621
sI6569
I6578
sI6578
I6632
sI6579
I7065
sI6581
I7310
sI6584
I7070
sI6585
I6586
sI6586
I7072
sI6596
I8054
sI6608
I7094
sI6612
I7098
sI6614
NsI6615
I6621
sI6617
I7346
sI6620
I6638
sI6621
I6702
sI6622
I6640
sI6626
I6632
sI6630
I6632
sI6632
I6875
sI6633
I6714
sI6634
I6640
sI6636
I7122
sI6638
I7367
sI6640
I6721
sI6650
I11024
sI6662
I7148
sI6666
I6720
sI6668
NsI6698
I7184
sI6702
I11076
sI6704
I6713
sI6713
I11087
sI6714
I7200
sI6716
I6719
sI6719
I7205
sI6720
I6721
sI6721
NsI6723
I6725
sI6725
I6734
sI6728
I11102
sI6729
I8916
sI6730
I6748
sI6734
I6740
sI6738
I6740
sI6740
I6983
sI6741
I7470
sI6742
I6748
sI6744
I6746
sI6746
I7475
sI6748
I7477
sI6752
I7238
sI6756
I7242
sI6758
I6767
sI6767
I8225
sI6768
I7254
sI6770
I7499
sI6773
I7259
sI6774
I7503
sI6775
I7261
sI6777
I7020
sI6778
I8236
sI6780
I11154
sI6782
I7025
sI6784
I6793
sI6786
I8244
sI6788
I7031
sI6791
I11165
sI6792
I7035
sI6793
I8251
sI6796
I7525
sI6798
I7527
sI6799
I7285
sI6812
I8270
sI6824
I11198
sI6828
I6882
sI6830
NsI6860
I7022
sI6864
I7026
sI6866
I6875
sI6875
NsI6876
I7038
sI6878
I7607
sI6881
I7043
sI6882
I6883
sI6883
I8341
sI6947
I11321
sI6959
I6965
sI6963
I8421
sI6965
NsI6968
I7022
sI6972
I7026
sI6974
I6983
sI6983
NsI6984
I7038
sI6986
I7715
sI6989
I7043
sI6990
I7719
sI6991
I7045
sI7001
I8459
sI7013
I7019
sI7017
I7019
sI7019
NsI7020
I7022
sI7022
I7031
sI7025
I11399
sI7026
I7035
sI7027
I8485
sI7031
NsI7035
NsI7038
I7767
sI7039
I7045
sI7041
I7043
sI7043
I7772
sI7045
I7774
sI7047
I7065
sI7049
I7778
sI7052
I7070
sI7053
I7134
sI7054
I7072
sI7058
I7064
sI7062
I7064
sI7064
I7793
sI7065
I7146
sI7066
I7072
sI7068
I7070
sI7070
I7151
sI7072
I7153
sI7076
I7238
sI7080
I7098
sI7082
I7091
sI7091
I8549
sI7092
I11466
sI7094
I7097
sI7097
I11471
sI7098
I7099
sI7099
I11473
sI7101
I7182
sI7102
I7108
sI7104
I7122
sI7106
I7187
sI7108
I7189
sI7110
I7116
sI7112
I7841
sI7115
I7277
sI7116
I7197
sI7117
I8575
sI7120
I7201
sI7122
I7203
sI7123
I8581
sI7130
I7184
sI7134
I7188
sI7136
I7145
sI7145
I11519
sI7146
I7200
sI7148
I7151
sI7151
I7205
sI7152
I7153
sI7153
NsI7163
I8621
sI7175
I8633
sI7179
I8637
sI7181
NsI7182
I7200
sI7184
I7913
sI7187
I7205
sI7188
I7189
sI7189
NsI7193
I7199
sI7197
I11571
sI7199
I7928
sI7200
I7201
sI7201
NsI7203
I8661
sI7205
I9392
sI7209
I7236
sI7210
I7228
sI7212
I7214
sI7214
I7241
sI7216
I7945
sI7218
I7220
sI7220
I7247
sI7223
I8681
sI7224
I9411
sI7225
I7279
sI7228
I7957
sI7230
I7959
sI7231
I7285
sI7236
I7238
sI7238
I7967
sI7241
I11615
sI7242
I9429
sI7243
I7261
sI7247
I8705
sI7251
I7253
sI7253
I9440
sI7254
I7983
sI7255
I7261
sI7257
I7259
sI7259
I7988
sI7261
I7990
sI7264
NsI7266
NsI7272
NsI7277
NsI7279
NsI7285
NsI7298
I7352
sI7310
I7364
sI7314
I7800
sI7316
NsI7346
I7352
sI7350
I7352
sI7352
I7361
sI7361
I7523
sI7362
I7848
sI7364
I9551
sI7367
I7529
sI7368
I9555
sI7369
I7855
sI7433
I7919
sI7445
I7931
sI7449
I7935
sI7451
NsI7454
I7508
sI7458
I7460
sI7460
I9647
sI7469
I7523
sI7470
I7956
sI7472
I9659
sI7475
I7529
sI7476
I9663
sI7477
I7963
sI7487
I7973
sI7499
I7985
sI7503
I7989
sI7505
NsI7506
I7508
sI7508
I9695
sI7511
I7529
sI7512
I9699
sI7513
I7531
sI7517
I7523
sI7521
I7523
sI7523
I7766
sI7524
I9711
sI7525
I7531
sI7527
I7529
sI7529
I9716
sI7531
I9718
sI7595
I7757
sI7607
I7769
sI7611
I7773
sI7613
NsI7703
I7757
sI7715
I7769
sI7719
I7773
sI7721
NsI7751
I7757
sI7755
I7757
sI7757
I7766
sI7766
NsI7767
I7769
sI7769
I9956
sI7772
I12146
sI7773
I9960
sI7774
I12148
sI7778
I7832
sI7782
I7800
sI7784
I9971
sI7793
I7847
sI7794
I7800
sI7796
I9983
sI7799
I7853
sI7800
I7801
sI7801
I7855
sI7811
I7973
sI7823
I7985
sI7827
I7989
sI7829
NsI7830
I7836
sI7832
I10019
sI7835
I7853
sI7836
I7917
sI7837
I7855
sI7841
I7847
sI7845
I7847
sI7847
I7928
sI7848
I10035
sI7849
I7855
sI7851
I7853
sI7853
I10040
sI7855
I7936
sI7865
I7919
sI7877
I7931
sI7881
I7935
sI7883
NsI7913
I7919
sI7917
I7919
sI7919
I7928
sI7928
NsI7929
I7935
sI7931
I10118
sI7934
I12308
sI7935
I7936
sI7936
NsI7938
I7956
sI7940
I10127
sI7943
I7961
sI7944
I10131
sI7945
I7963
sI7949
I7955
sI7953
I7955
sI7955
I10142
sI7956
I10143
sI7957
I7963
sI7959
I7961
sI7961
I10148
sI7963
I7990
sI7967
I7985
sI7971
I7989
sI7973
I10160
sI7982
I12356
sI7983
I7989
sI7985
I10172
sI7988
I12362
sI7989
I7990
sI7990
NsI7992
NsI7997
NsI7999
NsI8003
NsI8007
NsI8011
NsI8013
NsI8019
I12393
sI8021
I8030
sI8024
I8510
sI8025
I8106
sI8026
I8080
sI8030
I12404
sI8034
I12408
sI8036
I8279
sI8037
I8118
sI8038
I8044
sI8040
I8526
sI8042
I8123
sI8044
I8125
sI8048
I12422
sI8052
I12426
sI8054
I8063
sI8063
I8225
sI8064
I12438
sI8066
I8147
sI8069
I8555
sI8070
I8151
sI8071
I8557
sI8073
I8074
sI8074
I12448
sI8076
I12450
sI8078
NsI8080
I8161
sI8082
I12456
sI8084
NsI8088
I8331
sI8089
I12463
sI8092
I8173
sI8094
I8175
sI8095
I8581
sI8102
I12476
sI8106
I12480
sI8108
I8117
sI8117
I12491
sI8118
I8604
sI8120
I8123
sI8123
I8609
sI8124
I8125
sI8125
NsI8135
I12509
sI8147
I12521
sI8151
I12525
sI8153
NsI8154
I8160
sI8156
NsI8160
I8161
sI8161
NsI8169
I12543
sI8171
NsI8172
I8173
sI8173
NsI8175
I8661
sI8177
NsI8181
I8190
sI8182
I8236
sI8184
I12558
sI8186
I8195
sI8188
I8197
sI8190
I12564
sI8192
I8435
sI8195
I12569
sI8196
I8439
sI8197
I8251
sI8200
NsI8202
NsI8208
I8210
sI8210
I8219
sI8213
I8699
sI8214
I8223
sI8215
I8233
sI8219
I8225
sI8223
I8225
sI8225
I8468
sI8226
NsI8231
NsI8233
NsI8236
I8245
sI8238
I8247
sI8239
I12613
sI8244
I8487
sI8245
I12619
sI8247
I12621
sI8249
NsI8251
I8494
sI8257
NsI8264
I12638
sI8268
I12642
sI8270
I8279
sI8279
NsI8280
I12654
sI8282
I8309
sI8285
I8339
sI8286
I8367
sI8287
I8341
sI8297
I12671
sI8309
I12683
sI8313
I12687
sI8315
NsI8316
I12690
sI8318
NsI8322
I8331
sI8323
I12697
sI8331
NsI8334
I8335
sI8335
I8341
sI8337
I8339
sI8339
NsI8341
I8422
sI8351
I12725
sI8363
I12737
sI8367
I12741
sI8369
NsI8403
I12777
sI8405
NsI8415
I8421
sI8417
NsI8421
I8422
sI8422
NsI8424
I8426
sI8426
I8435
sI8429
I12803
sI8430
I8439
sI8431
I8485
sI8435
NsI8439
NsI8442
NsI8447
NsI8449
NsI8453
I8459
sI8457
I8459
sI8459
I8468
sI8468
NsI8471
NsI8475
NsI8478
I8487
sI8479
I8485
sI8481
I12855
sI8483
NsI8485
I8494
sI8487
NsI8494
NsI8497
NsI8499
NsI8505
I8586
sI8506
I12880
sI8508
I12882
sI8510
I8537
sI8512
I8593
sI8514
I12888
sI8516
I8543
sI8519
I8681
sI8520
I8601
sI8521
I8575
sI8524
I8605
sI8526
I8607
sI8527
I8581
sI8532
I12906
sI8534
I8543
sI8537
I12911
sI8538
I8619
sI8539
I8557
sI8543
I8549
sI8547
I8549
sI8549
I8630
sI8550
I8631
sI8551
I8557
sI8553
I8555
sI8555
I8636
sI8557
I8638
sI8560
I8641
sI8562
I8563
sI8563
I12937
sI8568
I8569
sI8569
I12943
sI8571
I12945
sI8573
NsI8575
I8656
sI8581
I8662
sI8586
I8604
sI8588
I8615
sI8591
I8609
sI8592
I8593
sI8593
NsI8597
I8603
sI8601
I12975
sI8603
I8630
sI8604
I8605
sI8605
NsI8607
I8661
sI8609
I10796
sI8615
I12989
sI8619
I12993
sI8621
I8630
sI8630
I13004
sI8631
I13005
sI8633
I8636
sI8636
I13010
sI8637
I8638
sI8638
NsI8640
I8641
sI8641
NsI8643
I8661
sI8645
NsI8649
I8655
sI8651
NsI8655
I8656
sI8656
NsI8661
I8662
sI8662
NsI8668
I8671
sI8670
I8679
sI8671
I13045
sI8676
I8703
sI8677
I13051
sI8679
I13053
sI8681
I8708
sI8683
I8710
sI8689
NsI8694
I8703
sI8695
I8701
sI8697
I8699
sI8699
I8708
sI8701
I8710
sI8703
I8705
sI8705
I8708
sI8708
I13082
sI8709
I10896
sI8710
I13084
sI8713
NsI8715
NsI8725
NsI8731
NsI8733
NsI8756
I8918
sI8768
I9254
sI8772
I8826
sI8774
NsI8804
I8810
sI8808
I8826
sI8810
I9539
sI8819
I8981
sI8820
I9306
sI8822
I9551
sI8825
I9311
sI8826
I9555
sI8827
I9313
sI8891
I9377
sI8903
I9389
sI8907
I9393
sI8909
NsI8912
I8918
sI8916
I8918
sI8918
I9647
sI8927
I8981
sI8928
I8930
sI8930
I9659
sI8933
I8987
sI8934
I9663
sI8935
I8989
sI8945
I9431
sI8957
I9443
sI8961
I9447
sI8963
NsI8964
I8970
sI8966
I9695
sI8969
I8987
sI8970
I9699
sI8971
I8989
sI8975
I8981
sI8979
I8981
sI8981
I9224
sI8982
I9711
sI8983
I8989
sI8985
I8987
sI8987
I9716
sI8989
I9718
sI9053
I9215
sI9065
I9227
sI9069
I9231
sI9071
NsI9161
I9215
sI9173
I9227
sI9177
I9231
sI9179
NsI9209
I9215
sI9213
I9215
sI9215
I9224
sI9224
NsI9225
I9227
sI9227
I9956
sI9230
I10688
sI9231
I9960
sI9232
I10690
sI9236
I9254
sI9240
I9258
sI9242
I9971
sI9251
I9413
sI9252
I9306
sI9254
I9983
sI9257
I9311
sI9258
I9987
sI9259
I9313
sI9269
I9431
sI9281
I9443
sI9285
I9447
sI9287
NsI9288
I9306
sI9290
I10019
sI9293
I9311
sI9294
I10023
sI9295
I9313
sI9299
I9305
sI9303
I9305
sI9305
I10034
sI9306
I9387
sI9307
I9313
sI9309
I9311
sI9311
I9392
sI9313
I9394
sI9323
I9377
sI9335
I9389
sI9339
I9393
sI9341
NsI9371
I9389
sI9375
I9393
sI9377
I10106
sI9386
I10844
sI9387
I9389
sI9389
I9392
sI9392
NsI9393
I9394
sI9394
NsI9396
I9398
sI9398
I10127
sI9401
I9419
sI9402
I10131
sI9403
I9421
sI9407
I9413
sI9411
I9413
sI9413
I10142
sI9414
I10143
sI9415
I9421
sI9417
I9419
sI9419
I10148
sI9421
I10150
sI9425
I9431
sI9429
I9431
sI9431
I10160
sI9440
I10898
sI9441
I9443
sI9443
I10172
sI9446
I10904
sI9447
I10176
sI9448
I10906
sI9450
NsI9455
NsI9457
NsI9461
NsI9465
NsI9469
NsI9471
NsI9539
NsI9551
NsI9555
NsI9647
NsI9659
NsI9663
NsI9695
NsI9699
NsI9710
NsI9711
NsI9716
NsI9718
NsI9944
NsI9956
NsI9960
NsI9971
NsI9983
NsI9987
NsI10019
NsI10023
NsI10034
NsI10035
NsI10040
NsI10042
NsI10106
NsI10118
NsI10122
NsI10127
NsI10131
NsI10142
NsI10143
NsI10148
NsI10150
NsI10160
NsI10172
NsI10176
NsI10208
I10214
sI10212
I10698
sI10214
I10223
sI10223
I10385
sI10224
I10710
sI10226
I10229
sI10229
I10715
sI10230
I10231
sI10231
I10285
sI10241
I10403
sI10253
I10259
sI10257
I10259
sI10259
NsI10260
I10266
sI10262
NsI10266
I10267
sI10267
I10285
sI10275
I10437
sI10277
NsI10278
I10359
sI10279
I10285
sI10281
I10767
sI10283
NsI10285
I10366
sI10295
I10313
sI10307
I10793
sI10311
I10365
sI10313
NsI10347
I10365
sI10349
NsI10359
I10845
sI10361
NsI10365
I10366
sI10366
NsI10368
I10374
sI10370
I10379
sI10373
I10391
sI10374
I10383
sI10375
I10393
sI10379
I10385
sI10383
I10385
sI10385
I10628
sI10386
NsI10391
NsI10393
NsI10397
I10403
sI10401
I10403
sI10403
I10412
sI10412
I10898
sI10415
NsI10419
NsI10422
I10431
sI10423
I10429
sI10425
I10427
sI10427
NsI10429
I10438
sI10431
I10437
sI10433
NsI10437
I10680
sI10438
I10924
sI10441
NsI10443
NsI10457
I10619
sI10469
I10475
sI10473
I10475
sI10475
NsI10509
I10671
sI10511
NsI10521
I10523
sI10523
NsI10527
I10528
sI10528
I10690
sI10608
I10610
sI10610
NsI10613
I10619
sI10617
I10619
sI10619
I10628
sI10628
NsI10631
NsI10635
NsI10646
I10664
sI10664
NsI10665
I10671
sI10667
NsI10671
I10680
sI10672
I10690
sI10680
NsI10683
NsI10688
NsI10690
NsI10692
I10710
sI10694
I10703
sI10697
I10715
sI10698
I10699
sI10699
I10717
sI10703
I10709
sI10707
I10709
sI10709
I10736
sI10710
I10791
sI10711
I10717
sI10713
I10715
sI10715
I10796
sI10717
I10798
sI10721
I10727
sI10725
I10727
sI10727
I10736
sI10736
I10898
sI10737
I10739
sI10739
I10742
sI10742
I10904
sI10743
I10744
sI10744
I10906
sI10746
I10827
sI10747
I10753
sI10749
I10767
sI10751
NsI10753
I10834
sI10755
I10757
sI10757
NsI10761
I10762
sI10762
I10924
sI10765
I10846
sI10767
I10848
sI10768
I10930
sI10775
I10793
sI10779
I10797
sI10781
I10790
sI10790
I10844
sI10791
I10845
sI10793
I10796
sI10796
NsI10797
I10798
sI10798
NsI10808
I10826
sI10820
I10826
sI10824
I10826
sI10826
NsI10827
I10845
sI10829
NsI10833
I10834
sI10834
NsI10842
I10844
sI10844
NsI10845
I10846
sI10846
NsI10848
NsI10854
I10863
sI10855
I10861
sI10857
I10859
sI10859
I10868
sI10861
I10870
sI10863
I10865
sI10865
I10892
sI10868
I10922
sI10869
I10896
sI10870
I10924
sI10873
NsI10875
NsI10881
I10883
sI10883
I10892
sI10886
I10904
sI10887
I10896
sI10888
I10906
sI10892
I10898
sI10896
I10898
sI10898
NsI10899
NsI10904
NsI10906
NsI10909
NsI10911
NsI10917
NsI10922
NsI10924
NsI10930
NsI10935
I12393
sI10937
I10946
sI10940
I11102
sI10941
I11022
sI10942
I10960
sI10946
I10952
sI10950
I11004
sI10952
I11195
sI10953
I11034
sI10954
I11440
sI10956
I11442
sI10958
I11687
sI10960
I11041
sI10964
I12422
sI10968
I12426
sI10970
I10979
sI10979
I12437
sI10980
I11466
sI10982
I10985
sI10985
I11471
sI10986
I10987
sI10987
I11473
sI10989
I11070
sI10990
I12448
sI10992
I11010
sI10994
I11723
sI10996
I11077
sI10998
I11004
sI11000
I11243
sI11003
I11165
sI11004
I11085
sI11005
I12463
sI11008
I11089
sI11010
I11091
sI11011
I11497
sI11018
I11024
sI11022
I12480
sI11024
I11033
sI11033
I11087
sI11034
I12492
sI11036
I11039
sI11039
I11525
sI11040
I11041
sI11041
NsI11051
I12509
sI11063
I12521
sI11067
I12525
sI11069
NsI11070
I11076
sI11072
I11801
sI11075
I11093
sI11076
I11077
sI11077
NsI11081
I11087
sI11085
I11087
sI11087
I11330
sI11088
I11089
sI11089
NsI11091
I11577
sI11093
I11822
sI11097
I11100
sI11098
I12556
sI11100
I11102
sI11102
I11111
sI11104
NsI11106
I12564
sI11108
I11351
sI11111
I12569
sI11112
NsI11116
I11143
sI11118
I11847
sI11119
I11173
sI11124
I11126
sI11126
I11129
sI11129
I11615
sI11130
NsI11135
I12593
sI11141
NsI11142
I11871
sI11143
I11629
sI11145
I11147
sI11147
I11876
sI11149
NsI11152
I11161
sI11154
I11397
sI11155
I12613
sI11160
I11403
sI11161
I12619
sI11163
I12621
sI11165
I11408
sI11167
NsI11173
I11416
sI11180
I12638
sI11184
I12642
sI11186
I11195
sI11195
NsI11196
I12654
sI11198
I11201
sI11201
I11255
sI11202
I11283
sI11203
I11257
sI11213
I12671
sI11225
I12683
sI11229
I12687
sI11231
NsI11232
I12690
sI11234
I11243
sI11237
I11399
sI11238
I11247
sI11239
I12697
sI11243
NsI11247
NsI11250
I11251
sI11251
I11257
sI11253
I11255
sI11255
I11984
sI11257
I11338
sI11267
I12725
sI11279
I12737
sI11283
I12741
sI11285
NsI11315
I11321
sI11319
I12777
sI11321
I11330
sI11330
NsI11331
I11337
sI11333
I11336
sI11336
I12794
sI11337
I11338
sI11338
NsI11340
I11342
sI11342
I11351
sI11345
I11399
sI11346
NsI11351
NsI11358
I11361
sI11359
I11365
sI11361
I11363
sI11363
I12092
sI11365
NsI11369
I12827
sI11375
NsI11385
I11387
sI11387
I11390
sI11390
I12848
sI11391
NsI11394
I11403
sI11395
I12853
sI11397
I11399
sI11399
I11408
sI11401
NsI11403
NsI11408
NsI11413
I11416
sI11415
I12144
sI11416
I12874
sI11421
I11502
sI11422
I11440
sI11424
I12882
sI11426
I11453
sI11428
I11509
sI11430
I12888
sI11432
I11513
sI11435
I11597
sI11436
I11517
sI11437
I11491
sI11440
I11521
sI11442
I11523
sI11443
I11497
sI11448
I11466
sI11450
I11453
sI11453
I11471
sI11454
I11535
sI11455
I11473
sI11459
I12917
sI11463
I11465
sI11465
I11546
sI11466
I11467
sI11467
I11473
sI11469
I11471
sI11471
I11552
sI11473
I11554
sI11476
I11557
sI11478
I11559
sI11479
I12937
sI11484
I11565
sI11485
I12943
sI11487
I12945
sI11489
I11570
sI11491
I11572
sI11497
I11578
sI11502
I11508
sI11504
I11513
sI11507
I11525
sI11508
I11509
sI11509
NsI11513
I11519
sI11517
I11571
sI11519
I12248
sI11520
I11521
sI11521
NsI11523
I11577
sI11525
I11552
sI11531
I12989
sI11535
I12993
sI11537
I11546
sI11546
I13004
sI11547
I13005
sI11549
I11552
sI11552
I13010
sI11553
I11554
sI11554
NsI11556
I11557
sI11557
NsI11559
I11577
sI11561
I12290
sI11565
I11571
sI11567
I12296
sI11570
I13028
sI11571
I11572
sI11572
NsI11577
I11578
sI11578
NsI11584
I11587
sI11586
I11613
sI11587
I13045
sI11592
I11595
sI11593
I13051
sI11595
I13053
sI11597
I11624
sI11599
NsI11605
I11632
sI11610
I11613
sI11611
I11629
sI11613
I11615
sI11615
I11624
sI11617
NsI11619
I11621
sI11621
I11624
sI11624
I13082
sI11625
NsI11629
I12358
sI11631
I12360
sI11632
I13090
sI11641
NsI11647
NsI11649
NsI11666
I11720
sI11670
I11724
sI11672
I11681
sI11681
I11735
sI11682
I12168
sI11684
I11687
sI11687
I11741
sI11688
I11689
sI11689
I12175
sI11699
I11717
sI11711
I11873
sI11715
I12201
sI11717
NsI11718
I11720
sI11720
I11729
sI11723
I11741
sI11724
I11805
sI11725
I11743
sI11729
I11735
sI11733
I11735
sI11735
I11816
sI11736
I11817
sI11737
I11743
sI11739
I11741
sI11741
I11822
sI11743
I11824
sI11753
I11807
sI11765
I11819
sI11769
I11823
sI11771
NsI11801
I12287
sI11805
I12291
sI11807
I11816
sI11816
NsI11817
I12303
sI11819
I11822
sI11822
I12308
sI11823
I11824
sI11824
NsI11826
I11828
sI11828
I11831
sI11831
I11849
sI11832
NsI11837
I11891
sI11843
NsI11844
I11847
sI11845
I12331
sI11847
I11849
sI11849
I11876
sI11851
NsI11855
I11873
sI11861
NsI11871
I12357
sI11873
I11876
sI11876
I12362
sI11877
NsI11880
I12123
sI11881
I11887
sI11883
I11885
sI11885
I12128
sI11887
NsI11889
I11891
sI11891
I12134
sI11894
I12380
sI11895
NsI11899
I11902
sI11901
I12144
sI11902
I12388
sI11915
I11969
sI11927
I11981
sI11931
I11933
sI11933
NsI11963
I12125
sI11967
I11969
sI11969
I11978
sI11978
NsI11979
I11981
sI11981
I11984
sI11984
I12146
sI11985
I11986
sI11986
I12148
sI12050
I12068
sI12062
I12068
sI12066
I12068
sI12068
NsI12071
I12125
sI12077
NsI12087
I12089
sI12089
I12092
sI12092
I12146
sI12093
NsI12116
I12122
sI12122
NsI12123
I12125
sI12125
I12134
sI12128
I12146
sI12129
NsI12134
NsI12141
I12144
sI12142
I12148
sI12144
I12146
sI12146
NsI12148
NsI12150
I12168
sI12152
I12233
sI12155
I12173
sI12156
I12237
sI12157
I12175
sI12161
I12167
sI12165
I12167
sI12167
I12248
sI12168
I12169
sI12169
I12175
sI12171
I12173
sI12173
I12200
sI12175
I12202
sI12179
I12197
sI12183
I12201
sI12185
I12194
sI12194
I12356
sI12195
I12357
sI12197
I12200
sI12200
I12362
sI12201
I12202
sI12202
NsI12204
I12285
sI12205
I12211
sI12207
I12209
sI12209
I12290
sI12211
I12292
sI12213
I12215
sI12215
I12296
sI12218
I12380
sI12219
I12300
sI12220
I12382
sI12223
I12304
sI12225
I12306
sI12226
I12388
sI12233
I12287
sI12237
I12291
sI12239
I12248
sI12248
NsI12249
I12303
sI12251
I12254
sI12254
I12308
sI12255
I12256
sI12256
NsI12266
I12284
sI12278
I12284
sI12282
I12284
sI12284
NsI12285
I12291
sI12287
I12296
sI12290
I12308
sI12291
I12292
sI12292
NsI12296
NsI12300
NsI12303
I12304
sI12304
NsI12306
I12308
sI12308
NsI12312
I12339
sI12313
I12331
sI12315
I12317
sI12317
I12344
sI12319
NsI12321
I12323
sI12323
I12326
sI12326
I12380
sI12327
NsI12331
I12358
sI12333
I12360
sI12334
I12388
sI12339
I12357
sI12341
I12344
sI12344
I12362
sI12345
NsI12350
I12356
sI12356
NsI12357
I12358
sI12358
NsI12360
I12362
sI12362
NsI12367
NsI12369
NsI12375
NsI12380
NsI12382
NsI12388
NsI12393
I12474
sI12394
I12448
sI12396
I12882
sI12398
I12425
sI12400
I12481
sI12402
I12456
sI12404
I12647
sI12407
I12569
sI12408
I12651
sI12409
I12463
sI12412
I12493
sI12414
I12495
sI12415
I12469
sI12420
I12422
sI12422
I12431
sI12425
I12911
sI12426
I12507
sI12427
I12445
sI12431
I12437
sI12435
I12437
sI12437
I12680
sI12438
I12519
sI12439
I12445
sI12441
I12443
sI12443
I12524
sI12445
I12526
sI12448
I12457
sI12450
I12451
sI12451
I12937
sI12456
I12457
sI12457
I12463
sI12459
I12621
sI12461
NsI12463
I12544
sI12469
I12550
sI12474
I12480
sI12476
I12503
sI12479
I12497
sI12480
I12481
sI12481
NsI12485
I12491
sI12489
I12543
sI12491
I12734
sI12492
I12493
sI12493
NsI12495
I12981
sI12497
I12524
sI12503
I12509
sI12507
I12525
sI12509
I12752
sI12518
I13004
sI12519
I12525
sI12521
I12764
sI12524
I13010
sI12525
I12526
sI12526
NsI12528
I12529
sI12529
NsI12531
I12549
sI12533
NsI12537
I12543
sI12539
NsI12543
I12544
sI12544
NsI12549
I12550
sI12550
NsI12556
I12565
sI12558
I12567
sI12559
I12613
sI12564
I12807
sI12565
I12619
sI12567
I12621
sI12569
I12812
sI12571
NsI12577
NsI12582
I12591
sI12583
I12589
sI12585
I12587
sI12587
I12596
sI12589
NsI12591
I12593
sI12593
I12836
sI12596
I13082
sI12597
NsI12601
NsI12603
NsI12613
I12622
sI12619
I12622
sI12621
I12622
sI12622
NsI12636
I12642
sI12638
I12647
sI12641
I12803
sI12642
I12651
sI12643
I12697
sI12647
NsI12651
NsI12654
I12735
sI12655
I12661
sI12657
I12659
sI12659
I12686
sI12661
I12742
sI12665
I12671
sI12669
I12671
sI12671
I12680
sI12680
NsI12681
I12683
sI12683
I12764
sI12686
I12848
sI12687
I12768
sI12688
I12850
sI12690
I12699
sI12691
I12697
sI12693
I12855
sI12695
NsI12697
I12706
sI12699
NsI12706
NsI12709
I12790
sI12711
I12712
sI12712
I12874
sI12719
I12725
sI12723
I12725
sI12725
I12734
sI12734
NsI12735
I12741
sI12737
I12764
sI12740
I12794
sI12741
I12742
sI12742
NsI12752
NsI12764
NsI12768
NsI12771
I12777
sI12773
NsI12777
I12778
sI12778
NsI12786
NsI12789
I12790
sI12790
NsI12792
I12794
sI12794
NsI12798
I12807
sI12799
I12853
sI12801
I12803
sI12803
I12812
sI12805
NsI12807
NsI12812
NsI12817
NsI12819
NsI12825
I12827
sI12827
I12836
sI12830
I12848
sI12831
NsI12836
NsI12843
NsI12848
NsI12850
NsI12853
I12862
sI12855
I12864
sI12856
I12874
sI12862
NsI12864
NsI12874
NsI12880
I12961
sI12882
I12883
sI12883
I12937
sI12888
I12889
sI12889
I12943
sI12891
I13053
sI12893
I12920
sI12895
I12976
sI12901
I12982
sI12906
I12987
sI12907
I12913
sI12909
I12911
sI12911
I12920
sI12913
I12994
sI12915
I12917
sI12917
I12920
sI12920
I13082
sI12921
I13002
sI12922
I13084
sI12925
I13006
sI12927
I13008
sI12928
I13090
sI12937
I12946
sI12943
I12946
sI12945
I12946
sI12946
NsI12960
I12961
sI12961
NsI12963
I12981
sI12965
I12992
sI12969
I12975
sI12971
I12998
sI12974
I13028
sI12975
I12976
sI12976
NsI12981
I12982
sI12982
NsI12987
I12993
sI12989
I12992
sI12992
I13010
sI12993
I12994
sI12994
NsI12998
I13004
sI13002
I13004
sI13004
NsI13005
I13006
sI13006
NsI13008
I13010
sI13010
NsI13017
I13018
sI13018
NsI13023
I13024
sI13024
NsI13026
I13028
sI13028
NsI13045
I13054
sI13051
I13054
sI13053
I13054
sI13054
NsI13069
I13072
sI13071
I13080
sI13072
I13090
sI13077
I13080
sI13078
I13084
sI13080
I13082
sI13082
NsI13084
NsI13090
NsI13122
I13203
sI13123
I13177
sI13125
I13179
sI13127
I13208
sI13129
I13858
sI13131
I13617
sI13133
I13214
sI13136
I13622
sI13137
I13218
sI13138
I13624
sI13141
I13870
sI13143
I13224
sI13144
I13198
sI13149
I13155
sI13151
I13232
sI13154
I14612
sI13155
I13236
sI13156
I13174
sI13160
I13166
sI13164
I13650
sI13166
I13247
sI13167
I13410
sI13168
I13174
sI13170
I13172
sI13172
I13253
sI13174
I13903
sI13177
I13186
sI13179
I13260
sI13180
I14638
sI13185
I13266
sI13186
I13672
sI13188
I13674
sI13190
I13271
sI13192
I13273
sI13198
I13441
sI13203
I13205
sI13205
I13214
sI13208
I13226
sI13209
I13218
sI13210
I17584
sI13214
I13220
sI13218
I13220
sI13220
I13949
sI13221
I13464
sI13222
I13228
sI13224
I13226
sI13226
I15413
sI13228
I13471
sI13232
I13238
sI13236
I17610
sI13238
I13481
sI13247
I17621
sI13248
I13254
sI13250
I13493
sI13253
I14711
sI13254
I13497
sI13255
I17629
sI13257
I13986
sI13258
I13744
sI13260
I13746
sI13262
I15449
sI13264
I13273
sI13266
I13752
sI13268
I13997
sI13271
I13757
sI13272
I14001
sI13273
I13759
sI13276
I13519
sI13278
I15465
sI13279
I14737
sI13285
I13294
sI13287
I13288
sI13288
I17662
sI13293
I13294
sI13294
I13780
sI13296
I13350
sI13298
NsI13300
I15487
sI13306
I14035
sI13311
I13312
sI13312
I13798
sI13314
I17688
sI13316
NsI13318
I14047
sI13320
I13806
sI13322
NsI13326
I13327
sI13327
I13813
sI13330
I14059
sI13332
I13333
sI13333
I17707
sI13342
I13351
sI13348
I13351
sI13350
I13351
sI13351
NsI13365
I13383
sI13367
I13448
sI13370
I13388
sI13371
I13452
sI13372
I13390
sI13376
I13382
sI13380
I13382
sI13382
I13463
sI13383
I13464
sI13384
I13390
sI13386
I13388
sI13388
I13469
sI13390
I13471
sI13394
I13400
sI13398
I13416
sI13400
I13481
sI13409
I14867
sI13410
I17784
sI13412
I13493
sI13415
I14873
sI13416
I13497
sI13417
I17791
sI13419
I13420
sI13420
I13582
sI13422
I13440
sI13424
I13505
sI13426
I15613
sI13428
I13434
sI13430
I13511
sI13433
I13595
sI13434
I13515
sI13435
I13597
sI13438
I14167
sI13440
I13521
sI13441
I13603
sI13448
I13466
sI13452
I17826
sI13454
I13481
sI13463
I17837
sI13464
I13466
sI13466
I13493
sI13469
I14927
sI13470
I13497
sI13471
I14929
sI13481
NsI13493
NsI13497
NsI13500
I13518
sI13502
I14231
sI13505
I13523
sI13506
I14235
sI13507
I13525
sI13511
I13517
sI13515
I13517
sI13517
I14246
sI13518
I13521
sI13519
I13525
sI13521
I13523
sI13523
I15710
sI13525
I14254
sI13527
I13528
sI13528
I13582
sI13530
I13584
sI13532
NsI13534
I15721
sI13536
I13590
sI13538
NsI13542
I13543
sI13543
I13597
sI13546
I14275
sI13548
I13549
sI13549
I13603
sI13554
I13572
sI13556
NsI13560
I13561
sI13561
I13579
sI13569
I13571
sI13571
NsI13572
I13573
sI13573
I13579
sI13575
I13577
sI13577
NsI13579
I14308
sI13582
I13585
sI13584
I13585
sI13585
I17959
sI13590
I13591
sI13591
I15049
sI13593
I15051
sI13595
NsI13597
I15784
sI13603
I14332
sI13609
I13618
sI13611
I13620
sI13612
I13774
sI13617
I13698
sI13618
I17992
sI13620
I13674
sI13622
I13703
sI13624
I14353
sI13630
NsI13635
I13644
sI13636
I13798
sI13638
I13800
sI13640
I13721
sI13642
I14371
sI13644
I13650
sI13646
I13727
sI13649
I13811
sI13650
I14379
sI13651
I13813
sI13654
NsI13656
NsI13666
I13675
sI13672
I13675
sI13674
I13675
sI13675
NsI13689
I13698
sI13690
I13744
sI13692
I13746
sI13694
I15881
sI13696
I13705
sI13698
I13752
sI13700
I14429
sI13703
I13757
sI13704
I14433
sI13705
I13759
sI13708
NsI13710
NsI13716
I13718
sI13718
I13727
sI13721
I15179
sI13722
I13731
sI13723
I18097
sI13727
I13733
sI13731
I13733
sI13733
I14462
sI13734
NsI13739
NsI13741
NsI13744
I13753
sI13746
I13755
sI13747
I15205
sI13752
I13755
sI13753
I18127
sI13755
I13757
sI13757
I14486
sI13759
I14488
sI13765
NsI13774
I13783
sI13780
I13783
sI13782
I13783
sI13783
NsI13798
I14527
sI13800
I13801
sI13801
I18175
sI13806
I13807
sI13807
I18181
sI13809
I15267
sI13811
NsI13813
I14542
sI13819
NsI13851
I18225
sI13853
I13934
sI13856
I13910
sI13857
I13938
sI13858
I18232
sI13862
I13868
sI13866
I14352
sI13868
I13949
sI13869
I13870
sI13870
I18244
sI13872
I13926
sI13874
I13955
sI13876
I13903
sI13880
I18254
sI13884
I18258
sI13886
I13967
sI13895
I14381
sI13896
I18270
sI13898
I13979
sI13901
I14063
sI13902
I13903
sI13903
NsI13905
I13986
sI13906
I18280
sI13908
I18282
sI13910
I13991
sI13912
I13993
sI13914
I18288
sI13916
I13997
sI13919
I14405
sI13920
I14001
sI13921
I14407
sI13924
I14167
sI13926
I14169
sI13927
I14089
sI13934
I13988
sI13938
I18312
sI13940
I13949
sI13949
NsI13950
I18324
sI13952
I13955
sI13955
I14009
sI13956
I13957
sI13957
I18331
sI13967
I18341
sI13979
I18353
sI13983
I18357
sI13985
NsI13986
I13988
sI13988
I13997
sI13991
I14477
sI13992
I14001
sI13993
I18367
sI13997
NsI14001
NsI14004
I14247
sI14005
I14011
sI14007
I14009
sI14009
I16196
sI14011
I14254
sI14013
I14014
sI14014
I18388
sI14016
I18390
sI14018
NsI14020
I14047
sI14022
I14508
sI14024
NsI14028
I14029
sI14029
I14515
sI14032
I14059
sI14034
I14035
sI14035
I18409
sI14040
I14046
sI14042
NsI14046
I14047
sI14047
NsI14055
I14541
sI14057
NsI14058
I14059
sI14059
NsI14061
I18435
sI14063
NsI14068
I14311
sI14070
I14071
sI14071
I18445
sI14076
I14077
sI14077
I18451
sI14079
I18453
sI14081
NsI14083
I14326
sI14089
I14332
sI14096
I18470
sI14100
I18474
sI14102
I14183
sI14111
I14165
sI14112
I18486
sI14114
I14195
sI14117
I14171
sI14118
I14119
sI14119
I14281
sI14129
I18503
sI14141
I18515
sI14145
I18519
sI14147
NsI14148
I18522
sI14150
I14231
sI14153
I14171
sI14154
I14235
sI14155
I14173
sI14159
I14165
sI14163
I14165
sI14165
I14246
sI14166
I14167
sI14167
I14173
sI14169
I18543
sI14171
I14252
sI14173
I14254
sI14183
I18557
sI14195
I18569
sI14199
I18573
sI14201
NsI14231
I18605
sI14235
I18609
sI14237
I14246
sI14246
NsI14247
I18621
sI14249
I14252
sI14252
I18626
sI14253
I14254
sI14254
I18628
sI14256
I14274
sI14258
NsI14262
I14263
sI14263
I14281
sI14271
I14273
sI14273
NsI14274
I14275
sI14275
I14281
sI14277
I14331
sI14279
NsI14281
I14308
sI14289
I14307
sI14291
NsI14301
I14307
sI14303
NsI14307
I14308
sI14308
NsI14310
I14311
sI14311
I14329
sI14313
I14331
sI14315
NsI14317
I16504
sI14319
I14321
sI14321
NsI14325
I14326
sI14326
I18700
sI14329
I14332
sI14331
I14332
sI14332
I18706
sI14337
I14346
sI14338
I18712
sI14340
I18714
sI14342
I14423
sI14344
I14371
sI14346
I18720
sI14348
I14429
sI14351
I14405
sI14352
I14433
sI14353
I18727
sI14356
NsI14358
NsI14364
I18738
sI14366
I14375
sI14369
I14387
sI14370
I14371
sI14371
NsI14375
I14381
sI14379
I18753
sI14381
I14462
sI14382
NsI14387
NsI14392
I14401
sI14394
I14403
sI14395
I18769
sI14400
I14481
sI14401
I18775
sI14403
I18777
sI14405
I14486
sI14407
I14488
sI14413
NsI14418
I14420
sI14420
I14429
sI14423
I14477
sI14424
I14433
sI14425
I18799
sI14429
NsI14433
NsI14436
NsI14441
NsI14443
NsI14447
I14453
sI14451
I18825
sI14453
I14462
sI14462
NsI14465
NsI14469
NsI14472
I14481
sI14473
I14479
sI14475
I14477
sI14477
I14486
sI14479
I14488
sI14481
NsI14486
NsI14488
NsI14491
NsI14493
NsI14500
I14527
sI14502
I14503
sI14503
I18877
sI14508
I14509
sI14509
I18883
sI14511
I18885
sI14513
NsI14515
I14542
sI14521
NsI14526
I14527
sI14527
NsI14529
I18903
sI14531
NsI14535
I14541
sI14537
NsI14541
I14542
sI14542
NsI14547
NsI14557
NsI14563
NsI14565
NsI14581
I14590
sI14583
I16770
sI14584
I14638
sI14589
I14590
sI14590
I14644
sI14592
I15078
sI14594
I14675
sI14596
I16783
sI14602
I14683
sI14607
I14688
sI14608
I14614
sI14610
I14612
sI14612
I14693
sI14614
I14623
sI14616
I14622
sI14618
I14699
sI14621
I14783
sI14622
I16809
sI14623
I14785
sI14626
I14707
sI14628
I14709
sI14629
I14791
sI14638
I14647
sI14644
I14647
sI14646
I14647
sI14647
NsI14661
I16848
sI14662
I14716
sI14664
I14666
sI14666
I16853
sI14668
I16855
sI14670
I15156
sI14672
I14699
sI14675
I15161
sI14676
I16863
sI14677
I14731
sI14680
I14923
sI14682
I16869
sI14683
I14737
sI14688
I14690
sI14690
I14933
sI14693
I14711
sI14694
I14937
sI14695
I14713
sI14699
I14705
sI14703
I14705
sI14705
I14948
sI14706
I14949
sI14707
I14713
sI14709
I14711
sI14711
I14954
sI14713
I14956
sI14716
I16903
sI14718
I16905
sI14719
I15205
sI14724
I14725
sI14725
I15211
sI14727
I15213
sI14729
NsI14731
I16918
sI14737
I16924
sI14746
I14755
sI14752
I14755
sI14754
I14755
sI14755
NsI14770
I14779
sI14772
I14773
sI14773
I15259
sI14778
I14779
sI14779
I15265
sI14781
I15267
sI14783
NsI14785
I16972
sI14791
NsI14823
I14904
sI14824
I14830
sI14826
I14844
sI14828
I14909
sI14830
I17017
sI14832
I14838
sI14834
I14861
sI14837
I14891
sI14838
I14839
sI14839
I14893
sI14842
I14923
sI14844
I14925
sI14845
I14899
sI14850
I14852
sI14852
I14933
sI14855
I14873
sI14856
I14937
sI14857
I14875
sI14861
I14867
sI14865
I14867
sI14867
I14948
sI14868
I14949
sI14869
I14875
sI14871
I14873
sI14873
I14954
sI14875
I14956
sI14878
I17065
sI14880
I14881
sI14881
I15043
sI14886
I14887
sI14887
I15049
sI14889
I15051
sI14891
NsI14893
I17080
sI14899
I14980
sI14904
I14922
sI14906
I14933
sI14909
I14927
sI14910
I14937
sI14911
I14929
sI14915
I14921
sI14919
I14921
sI14921
I14948
sI14922
I14949
sI14923
I14929
sI14925
I14927
sI14927
I14954
sI14929
I14956
sI14933
NsI14937
NsI14948
NsI14949
NsI14954
NsI14956
NsI14958
I17145
sI14959
I14965
sI14961
I14979
sI14963
NsI14965
I17152
sI14967
I14969
sI14969
NsI14973
I14974
sI14974
I19348
sI14977
I17164
sI14979
I17166
sI14980
I19354
sI14986
I14995
sI14988
I14989
sI14989
I15043
sI14994
I14995
sI14995
I15049
sI14997
I15051
sI14999
NsI15001
I17188
sI15007
NsI15012
I15013
sI15013
I15019
sI15015
I15017
sI15017
NsI15019
I15028
sI15021
I15023
sI15023
NsI15027
I15028
sI15028
I19402
sI15031
NsI15033
NsI15043
I15052
sI15049
I15052
sI15051
I15052
sI15052
NsI15070
I15079
sI15076
I15079
sI15078
I15079
sI15079
NsI15094
I15103
sI15096
I15097
sI15097
I15259
sI15102
I17289
sI15103
I15265
sI15105
I15267
sI15107
I15188
sI15109
I17296
sI15115
NsI15148
I15157
sI15150
I17337
sI15151
I15205
sI15156
I17343
sI15157
I15211
sI15159
I15213
sI15161
I17348
sI15163
I17350
sI15169
NsI15174
I17361
sI15175
I15181
sI15177
I15179
sI15179
I17366
sI15181
I15190
sI15183
I15185
sI15185
I17372
sI15188
I19562
sI15189
I17376
sI15190
I19564
sI15193
NsI15195
NsI15205
I15214
sI15211
I15214
sI15213
I15214
sI15214
NsI15259
I15268
sI15265
I15268
sI15267
I15268
sI15268
NsI15309
I16767
sI15311
I15392
sI15314
I15332
sI15315
I15316
sI15316
I15478
sI15320
I15806
sI15324
I15810
sI15326
I15407
sI15327
I15408
sI15328
I15334
sI15330
I15332
sI15332
I15413
sI15334
I15577
sI15338
I16796
sI15342
I16800
sI15344
I15425
sI15353
I15839
sI15354
I16812
sI15356
I15437
sI15359
I16817
sI15360
I15361
sI15361
I15523
sI15363
I15444
sI15364
I16822
sI15366
I16824
sI15368
I15449
sI15370
I15613
sI15372
I15858
sI15374
I15455
sI15377
I15863
sI15378
I15459
sI15379
I16837
sI15382
I15625
sI15384
I15465
sI15385
I16843
sI15392
I15878
sI15396
I16854
sI15398
I15407
sI15407
I15893
sI15408
I16866
sI15410
I15413
sI15413
NsI15414
I15657
sI15415
I15469
sI15425
I16883
sI15437
I16895
sI15441
I16899
sI15443
NsI15444
I15930
sI15446
I15449
sI15449
NsI15450
I15459
sI15451
I16909
sI15455
I15941
sI15459
I15945
sI15461
I16190
sI15462
I15465
sI15463
I16921
sI15465
NsI15469
I15712
sI15471
I15472
sI15472
I15478
sI15474
I16932
sI15476
NsI15478
I15505
sI15480
I16938
sI15482
NsI15486
I15487
sI15487
I16945
sI15490
I16219
sI15492
I15493
sI15493
I15547
sI15498
I15504
sI15500
NsI15504
I15505
sI15505
I15991
sI15513
I15999
sI15515
NsI15516
I15517
sI15517
I15523
sI15519
I15521
sI15521
NsI15523
I16252
sI15526
I15769
sI15528
I15529
sI15529
I16987
sI15534
I15535
sI15535
I16993
sI15537
I16995
sI15539
NsI15541
I15784
sI15547
I15790
sI15554
I17012
sI15558
I17016
sI15560
I15587
sI15569
I15623
sI15570
I17028
sI15572
I15653
sI15575
I15629
sI15576
I15577
sI15577
I15631
sI15587
I17045
sI15599
I17057
sI15603
I17061
sI15605
NsI15606
I15624
sI15608
I15611
sI15611
I15629
sI15612
I15613
sI15613
I15631
sI15617
I15623
sI15621
I15783
sI15623
I15704
sI15624
I15705
sI15625
I15631
sI15627
I15629
sI15629
I15710
sI15631
I15712
sI15641
I17099
sI15653
I17111
sI15657
I17115
sI15659
NsI15689
I15707
sI15693
I15711
sI15695
I15704
sI15704
I17162
sI15705
I17163
sI15707
I15710
sI15710
NsI15711
I15712
sI15712
I17170
sI15714
I15720
sI15716
NsI15720
I15721
sI15721
I15775
sI15729
I15783
sI15731
NsI15732
I15733
sI15733
I15739
sI15735
I15737
sI15737
NsI15739
I16468
sI15747
I15749
sI15749
NsI15759
I15761
sI15761
NsI15765
I15766
sI15766
I17224
sI15768
I15769
sI15769
I15775
sI15771
I15773
sI15773
NsI15775
I15784
sI15777
I15783
sI15779
NsI15783
I15784
sI15784
I17242
sI15787
I16516
sI15789
I15790
sI15790
I17248
sI15795
I15876
sI15796
I17254
sI15798
I17256
sI15800
I15881
sI15802
I15811
sI15804
I17262
sI15806
I15887
sI15809
I15863
sI15810
I15891
sI15811
I17269
sI15814
NsI15816
NsI15822
I15828
sI15824
I15905
sI15827
I17285
sI15828
I15837
sI15829
I15991
sI15833
I15839
sI15837
I17295
sI15839
I15920
sI15840
NsI15845
NsI15847
NsI15850
I15859
sI15852
I15933
sI15853
I17311
sI15858
I15939
sI15859
I17317
sI15861
I17319
sI15863
I15944
sI15865
I15946
sI15871
NsI15876
I15878
sI15878
I15881
sI15881
NsI15882
I15891
sI15883
I15937
sI15887
I15941
sI15891
I15893
sI15893
I16622
sI15894
NsI15901
NsI15905
I17363
sI15909
I15911
sI15911
I15920
sI15920
I17378
sI15923
NsI15927
NsI15930
I15933
sI15931
I17389
sI15933
NsI15937
I15946
sI15939
I15941
sI15941
I15944
sI15944
NsI15945
I16674
sI15946
I17404
sI15949
NsI15958
I15967
sI15960
I15961
sI15961
I17419
sI15966
I15967
sI15967
I17425
sI15969
I17427
sI15971
NsI15973
I16000
sI15979
NsI15984
I15985
sI15985
I15991
sI15987
I15989
sI15989
NsI15991
I16720
sI15993
I15999
sI15995
NsI15999
I16000
sI16000
I17458
sI16003
NsI16005
NsI16015
NsI16021
NsI16023
NsI16040
I16094
sI16044
I16098
sI16046
I16055
sI16055
I16109
sI16056
I16062
sI16058
I16061
sI16061
I16115
sI16062
I16063
sI16063
I16225
sI16073
I16091
sI16085
I16091
sI16089
I16251
sI16091
NsI16092
I16094
sI16094
I16175
sI16097
I16115
sI16098
I16107
sI16099
I16117
sI16103
I16109
sI16107
I16109
sI16109
I16190
sI16110
I16111
sI16111
I16117
sI16113
I16115
sI16115
I16196
sI16117
I16360
sI16127
I16181
sI16139
I16193
sI16143
I16145
sI16145
NsI16175
I16661
sI16179
I16181
sI16181
I16190
sI16190
NsI16191
I16193
sI16193
I16196
sI16196
NsI16197
I16198
sI16198
I16684
sI16200
I16206
sI16202
NsI16206
I16207
sI16207
I16225
sI16215
I16217
sI16217
NsI16218
I16219
sI16219
I16225
sI16221
I16223
sI16223
NsI16225
I16252
sI16233
I16251
sI16235
NsI16245
I16251
sI16247
NsI16251
I16252
sI16252
NsI16254
I16255
sI16255
I16261
sI16257
I16259
sI16259
NsI16261
I16504
sI16263
I16265
sI16265
NsI16269
I16270
sI16270
I16756
sI16273
I16516
sI16275
I16276
sI16276
I16762
sI16289
I16307
sI16301
I16307
sI16305
I16359
sI16307
NsI16337
I16343
sI16341
I16359
sI16343
I16352
sI16352
I16514
sI16353
I16359
sI16355
I16358
sI16358
I16520
sI16359
I16360
sI16360
I16522
sI16424
I16442
sI16436
I16442
sI16440
I16442
sI16442
NsI16449
I16467
sI16451
NsI16461
I16467
sI16463
NsI16467
I16468
sI16468
I16522
sI16494
I16496
sI16496
NsI16497
I16503
sI16499
NsI16503
I16504
sI16504
I16522
sI16512
I16514
sI16514
NsI16515
I16516
sI16516
I16522
sI16518
I16520
sI16520
NsI16522
NsI16524
I16530
sI16526
I16607
sI16529
I16583
sI16530
I16539
sI16531
I16693
sI16535
I16541
sI16539
I16541
sI16541
I16622
sI16542
NsI16547
NsI16549
NsI16553
I16559
sI16557
I16719
sI16559
I16568
sI16568
I16730
sI16571
NsI16575
NsI16578
I16659
sI16579
I16585
sI16581
I16583
sI16583
I16664
sI16585
I16594
sI16587
I16589
sI16589
I16670
sI16592
I16754
sI16593
I16674
sI16594
I16756
sI16597
NsI16599
NsI16607
I16661
sI16611
I16613
sI16613
I16622
sI16622
NsI16625
NsI16629
NsI16640
I16658
sI16658
NsI16659
I16661
sI16661
I16664
sI16664
NsI16665
I16674
sI16666
I16684
sI16670
NsI16674
NsI16677
NsI16684
NsI16686
I16687
sI16687
I16693
sI16689
I16691
sI16691
NsI16693
I16720
sI16695
I16697
sI16697
NsI16701
I16702
sI16702
I16756
sI16705
NsI16707
NsI16713
I16719
sI16715
NsI16719
I16720
sI16720
NsI16728
I16730
sI16730
NsI16731
NsI16736
NsI16741
NsI16743
NsI16749
NsI16754
NsI16756
NsI16762
NsI16767
I16848
sI16768
I16822
sI16770
I17256
sI16772
I16853
sI16774
I16783
sI16776
I17262
sI16778
I16859
sI16781
I17267
sI16782
I16783
sI16783
I16837
sI16786
I16867
sI16788
I16869
sI16789
I16843
sI16794
I16796
sI16796
I16877
sI16799
I16817
sI16800
I16881
sI16801
I16963
sI16805
I16811
sI16809
I17295
sI16811
I16892
sI16812
I16893
sI16813
I16819
sI16815
I16817
sI16817
I16898
sI16819
I16900
sI16822
I16831
sI16824
I16905
sI16825
I17311
sI16830
I16831
sI16831
I16993
sI16833
I17319
sI16835
NsI16837
I16918
sI16843
I16924
sI16848
I16850
sI16850
I16853
sI16853
NsI16854
I16881
sI16855
I16909
sI16859
I17345
sI16863
I17349
sI16865
I16892
sI16866
I16869
sI16867
I16921
sI16869
NsI16873
I17116
sI16877
I16895
sI16881
I16883
sI16883
I17126
sI16892
I17378
sI16893
I16895
sI16895
I16898
sI16898
NsI16899
I17142
sI16900
I17386
sI16902
I16905
sI16903
I16921
sI16905
NsI16909
I16918
sI16911
I17397
sI16913
NsI16917
I16918
sI16918
I17404
sI16921
I16924
sI16924
NsI16930
I16939
sI16932
I16933
sI16933
I16987
sI16938
I16939
sI16939
I16993
sI16941
I16995
sI16943
NsI16945
I16972
sI16951
NsI16956
I16957
sI16957
I16963
sI16959
I16961
sI16961
NsI16963
I16972
sI16965
I16971
sI16967
NsI16971
I16972
sI16972
I17458
sI16975
NsI16977
NsI16987
I16996
sI16993
I16996
sI16995
I16996
sI16996
NsI17010
I17028
sI17012
I17093
sI17015
I17033
sI17016
I17097
sI17017
I17071
sI17021
I17027
sI17025
I17079
sI17027
I17054
sI17028
I17109
sI17029
I17035
sI17031
I17033
sI17033
I17114
sI17035
I17116
sI17039
I17045
sI17043
I17045
sI17045
I17126
sI17054
I17216
sI17055
I17057
sI17057
I17138
sI17060
I17222
sI17061
I17142
sI17062
I17224
sI17064
I17065
sI17065
I17071
sI17067
I17085
sI17069
NsI17071
I17080
sI17073
I17079
sI17075
NsI17079
I17080
sI17080
I17242
sI17083
I17164
sI17085
I17166
sI17086
I17248
sI17093
I17111
sI17097
I17115
sI17099
I17126
sI17108
I17162
sI17109
I17111
sI17111
I17114
sI17114
NsI17115
I17142
sI17116
I17170
sI17126
NsI17138
NsI17142
NsI17145
I17163
sI17147
NsI17151
I17152
sI17152
I17170
sI17160
I17162
sI17162
NsI17163
I17166
sI17164
I17170
sI17166
NsI17170
NsI17172
I17173
sI17173
I17179
sI17175
I17177
sI17177
NsI17179
I17188
sI17181
I17187
sI17183
NsI17187
I17188
sI17188
I17242
sI17191
NsI17193
NsI17199
I17201
sI17201
NsI17205
I17206
sI17206
I17224
sI17214
I17216
sI17216
NsI17217
NsI17222
NsI17224
NsI17227
I17236
sI17229
I17230
sI17230
I17248
sI17235
I17236
sI17236
I17242
sI17238
I17240
sI17240
NsI17242
NsI17248
NsI17254
I17263
sI17256
I17337
sI17257
I17311
sI17262
I17263
sI17263
I17317
sI17265
I17319
sI17267
I17348
sI17269
I17296
sI17275
NsI17280
I17289
sI17281
I17287
sI17283
I17285
sI17285
I17366
sI17287
I17296
sI17289
I17295
sI17291
I17372
sI17294
I17456
sI17295
I17296
sI17296
I17458
sI17299
NsI17301
NsI17311
I17320
sI17317
I17320
sI17319
I17320
sI17320
NsI17334
I17337
sI17335
I17389
sI17337
NsI17341
I17350
sI17343
I17345
sI17345
I17348
sI17348
NsI17349
I17350
sI17350
I17404
sI17353
NsI17361
I17363
sI17363
I17366
sI17366
NsI17367
I17376
sI17368
I17386
sI17372
I17378
sI17376
I17378
sI17378
NsI17379
NsI17386
NsI17389
I17392
sI17392
NsI17397
I17400
sI17398
I17404
sI17400
NsI17404
NsI17419
I17428
sI17425
I17428
sI17427
I17428
sI17428
NsI17443
I17452
sI17445
I17446
sI17446
I17464
sI17451
I17452
sI17452
I17458
sI17454
I17456
sI17456
NsI17458
NsI17464
NsI17497
I18226
sI17499
I18228
sI17500
I17662
sI17505
I18234
sI17506
I17992
sI17508
I17562
sI17510
I17591
sI17512
I18241
sI17518
I18247
sI17523
I18252
sI17524
I17530
sI17526
I17688
sI17528
I17609
sI17530
I18259
sI17532
I18018
sI17534
I17615
sI17537
I17699
sI17538
I17619
sI17539
I18025
sI17542
I18271
sI17544
I17545
sI17545
I17707
sI17554
I17563
sI17560
I17563
sI17562
I17563
sI17563
NsI17577
I18306
sI17578
I17584
sI17580
I17634
sI17582
I18311
sI17584
I18313
sI17586
I17588
sI17588
I18317
sI17591
I17645
sI17592
I18321
sI17593
I17647
sI17596
I17839
sI17598
I17841
sI17599
I17653
sI17604
I17610
sI17606
I17849
sI17609
I17627
sI17610
I17853
sI17611
I17629
sI17615
I17621
sI17619
I17621
sI17621
I17864
sI17622
I17865
sI17623
I17629
sI17625
I17627
sI17627
I17870
sI17629
I17872
sI17632
I18361
sI17634
I18363
sI17635
I18121
sI17640
I18369
sI17641
I18127
sI17643
I18129
sI17645
I18374
sI17647
I18376
sI17653
I17896
sI17662
I17671
sI17668
I17671
sI17670
I17671
sI17671
NsI17686
I18415
sI17688
I17689
sI17689
I18175
sI17694
I17695
sI17695
I18181
sI17697
I18183
sI17699
NsI17701
NsI17707
I18436
sI17739
I17820
sI17740
I17758
sI17742
I17760
sI17744
I17825
sI17746
I17827
sI17748
I17750
sI17750
I17831
sI17753
I17807
sI17754
I17835
sI17755
I17809
sI17758
I18487
sI17760
I18489
sI17761
I17815
sI17766
I17784
sI17768
I17849
sI17771
I17789
sI17772
I17853
sI17773
I17791
sI17777
I17783
sI17781
I17783
sI17783
I17864
sI17784
I17865
sI17785
I17791
sI17787
I17789
sI17789
I17870
sI17791
I17872
sI17794
I18523
sI17796
I18525
sI17797
I17959
sI17802
I17883
sI17803
I17965
sI17805
I17967
sI17807
I17888
sI17809
I17890
sI17815
I18544
sI17820
I17822
sI17822
I17849
sI17825
I17843
sI17826
I17853
sI17827
I17845
sI17831
I17837
sI17835
I17837
sI17837
I17864
sI17838
I17865
sI17839
I17845
sI17841
I17843
sI17843
I17870
sI17845
I17872
sI17849
NsI17853
NsI17864
NsI17865
NsI17870
NsI17872
NsI17874
I18603
sI17875
I17881
sI17877
I17879
sI17879
I18608
sI17881
I18610
sI17883
I17885
sI17885
I18614
sI17888
I19346
sI17889
I18618
sI17890
I19348
sI17893
I18622
sI17895
I18624
sI17896
I19354
sI17902
I17905
sI17904
I17905
sI17905
I17959
sI17910
I17911
sI17911
I17965
sI17913
I17967
sI17915
NsI17917
NsI17923
I18652
sI17928
I17929
sI17929
I17947
sI17931
I17933
sI17933
NsI17935
NsI17937
I17939
sI17939
NsI17943
NsI17947
I18676
sI17949
I17950
sI17950
I19408
sI17959
I17968
sI17965
I17968
sI17967
I17968
sI17968
NsI17986
I17995
sI17992
I17995
sI17994
I17995
sI17995
NsI18010
I18739
sI18012
I18013
sI18013
I18175
sI18018
I18747
sI18019
I18181
sI18021
I18183
sI18023
I18104
sI18025
I18754
sI18031
NsI18064
I18073
sI18066
I18075
sI18067
I18121
sI18072
I18801
sI18073
I18127
sI18075
I18129
sI18077
I18806
sI18079
I18808
sI18085
NsI18090
I18819
sI18091
I18097
sI18093
I18095
sI18095
I18104
sI18097
I18826
sI18099
I18101
sI18101
I18830
sI18104
I19562
sI18105
I18834
sI18106
I19564
sI18109
NsI18111
NsI18121
I18130
sI18127
I18130
sI18129
I18130
sI18130
NsI18175
I18184
sI18181
I18184
sI18183
I18184
sI18184
NsI18225
I18306
sI18226
I18712
sI18228
I18282
sI18230
I18311
sI18232
I18259
sI18234
I18720
sI18236
I18317
sI18239
I18293
sI18240
I18321
sI18241
I18727
sI18244
I18271
sI18246
I18489
sI18247
I18409
sI18252
I18258
sI18254
I18335
sI18257
I18275
sI18258
I18259
sI18259
NsI18263
I18269
sI18267
I18753
sI18269
I18350
sI18270
I18271
sI18271
NsI18273
I18435
sI18275
I18356
sI18280
I18289
sI18282
I18291
sI18283
I18445
sI18288
I18369
sI18289
I18775
sI18291
I18777
sI18293
I18374
sI18295
I18376
sI18301
I18544
sI18306
I18312
sI18308
I18317
sI18311
I18365
sI18312
I18321
sI18313
I18799
sI18317
NsI18321
NsI18324
I18567
sI18325
I18331
sI18327
I18329
sI18329
I18572
sI18331
I18358
sI18335
I18341
sI18339
I18341
sI18341
I18350
sI18350
NsI18351
I18357
sI18353
I18596
sI18356
I18842
sI18357
I18358
sI18358
NsI18360
I18369
sI18361
I18367
sI18363
I18365
sI18365
I18374
sI18367
I18376
sI18369
NsI18374
NsI18376
NsI18379
I18622
sI18381
I18624
sI18382
I18868
sI18388
I18415
sI18390
I18391
sI18391
I18877
sI18396
I18397
sI18397
I18883
sI18399
I18453
sI18401
NsI18403
NsI18409
I18436
sI18414
I18415
sI18415
NsI18417
I18435
sI18419
NsI18423
I18909
sI18425
NsI18429
NsI18435
I18436
sI18436
NsI18445
I18454
sI18451
I18454
sI18453
I18454
sI18454
NsI18468
I18486
sI18470
I18551
sI18473
I18491
sI18474
I18555
sI18475
I18493
sI18479
I18485
sI18483
I18485
sI18485
I18566
sI18486
I18487
sI18487
I18493
sI18489
I18543
sI18491
I18572
sI18493
I18520
sI18497
I18503
sI18501
I18519
sI18503
I18584
sI18512
I18674
sI18513
I18519
sI18515
I18596
sI18518
I18680
sI18519
I18520
sI18520
NsI18522
I18603
sI18523
I18541
sI18525
I18543
sI18527
I18608
sI18529
I18610
sI18531
I18533
sI18533
I18614
sI18536
I18698
sI18537
I18618
sI18538
I18700
sI18541
I18544
sI18543
I18544
sI18544
I18706
sI18551
I18557
sI18555
I18557
sI18557
I18566
sI18566
NsI18567
I18569
sI18569
I18596
sI18572
I18626
sI18573
I18600
sI18574
I18628
sI18584
NsI18596
NsI18600
NsI18603
I18605
sI18605
I18614
sI18608
I18626
sI18609
I18618
sI18610
I18628
sI18614
NsI18618
NsI18621
I18622
sI18622
I18628
sI18624
I18626
sI18626
NsI18628
NsI18630
I18631
sI18631
I18649
sI18633
I18651
sI18635
NsI18637
NsI18639
I18641
sI18641
NsI18645
NsI18649
I18676
sI18651
I18652
sI18652
I18706
sI18657
I18675
sI18659
NsI18663
NsI18674
NsI18675
I18676
sI18676
NsI18678
I18680
sI18680
NsI18685
I18688
sI18687
I18688
sI18688
I18706
sI18693
I18694
sI18694
I18700
sI18696
I18698
sI18698
NsI18700
NsI18706
NsI18712
I18721
sI18714
I18723
sI18715
I18877
sI18720
I18721
sI18721
I18727
sI18723
I18777
sI18725
I18806
sI18727
I18754
sI18733
NsI18738
I18739
sI18739
NsI18741
I18903
sI18743
I18752
sI18747
I18753
sI18749
I18830
sI18752
I18914
sI18753
I18754
sI18754
NsI18759
NsI18769
I18778
sI18775
I18778
sI18777
I18778
sI18778
NsI18792
I18801
sI18793
I18799
sI18795
I18797
sI18797
I18806
sI18799
I18808
sI18801
NsI18806
NsI18808
NsI18811
NsI18813
NsI18819
I18825
sI18821
I18830
sI18824
I18842
sI18825
I18826
sI18826
NsI18830
NsI18834
NsI18837
NsI18842
NsI18847
I18856
sI18849
I18858
sI18850
I18868
sI18856
NsI18858
NsI18868
NsI18877
I18886
sI18883
I18886
sI18885
I18886
sI18886
NsI18903
I18904
sI18904
NsI18909
I18910
sI18910
NsI18912
I18914
sI18914
NsI18958
NsI18964
NsI18966
NsI18982
NsI18984
NsI18990
NsI18995
NsI18997
NsI19003
NsI19036
NsI19038
NsI19044
NsI19049
NsI19051
NsI19057
NsI19062
NsI19067
NsI19069
NsI19073
NsI19077
NsI19081
NsI19083
NsI19093
NsI19099
NsI19101
NsI19147
NsI19153
NsI19155
NsI19198
NsI19200
NsI19206
NsI19211
NsI19213
NsI19219
NsI19224
NsI19229
NsI19231
NsI19235
NsI19239
NsI19243
NsI19245
NsI19255
NsI19261
NsI19263
NsI19278
NsI19283
NsI19285
NsI19289
NsI19293
NsI19297
NsI19299
NsI19333
NsI19335
NsI19341
NsI19346
NsI19348
NsI19354
NsI19363
NsI19369
NsI19371
NsI19387
NsI19389
NsI19395
NsI19400
NsI19402
NsI19408
NsI19471
NsI19477
NsI19479
NsI19525
NsI19531
NsI19533
NsI19549
NsI19551
NsI19557
NsI19562
NsI19564
NsI19570
Ns.